ARM GAS  /tmp/cccjJSci.s 			page 1


   1              		.cpu cortex-m3
   2              		.eabi_attribute 20, 1	@ Tag_ABI_FP_denormal
   3              		.eabi_attribute 21, 1	@ Tag_ABI_FP_exceptions
   4              		.eabi_attribute 23, 3	@ Tag_ABI_FP_number_model
   5              		.eabi_attribute 24, 1	@ Tag_ABI_align8_needed
   6              		.eabi_attribute 25, 1	@ Tag_ABI_align8_preserved
   7              		.eabi_attribute 26, 1	@ Tag_ABI_enum_size
   8              		.eabi_attribute 30, 2	@ Tag_ABI_optimization_goals
   9              		.eabi_attribute 34, 1	@ Tag_CPU_unaligned_access
  10              		.eabi_attribute 18, 4	@ Tag_ABI_PCS_wchar_t
  11              		.file	"dht.c"
  12              	@ GNU C99 (15:7-2018-q2-6) version 7.3.1 20180622 (release) [ARM/embedded-7-branch revision 261907]
  13              	@	compiled by GNU C version 8.2.0, GMP version 6.1.2, MPFR version 4.0.2, MPC version 1.1.0, isl ve
  14              	@ GGC heuristics: --param ggc-min-expand=100 --param ggc-min-heapsize=131072
  15              	@ options passed:  -I . -imultilib thumb/v7-m -MD out/dht.d -MF out/dht.d
  16              	@ -MP -MQ out/dht.o -D__USES_INITFINI__ -D RAMCODE -D STM32F10X_HD
  17              	@ inc/dht/dht.c -mcpu=cortex-m3 -mthumb -auxbase-strip out/dht.o -O2 -Wall
  18              	@ -Wstrict-prototypes -Wextra -Wno-uninitialized
  19              	@ -Wno-unused-but-set-variable -Wno-unused-parameter -Wno-unused-variable
  20              	@ -std=gnu99 -ffunction-sections -fdata-sections -fverbose-asm
  21              	@ options enabled:  -faggressive-loop-optimizations -falign-jumps
  22              	@ -falign-labels -falign-loops -fauto-inc-dec -fbranch-count-reg
  23              	@ -fcaller-saves -fchkp-check-incomplete-type -fchkp-check-read
  24              	@ -fchkp-check-write -fchkp-instrument-calls -fchkp-narrow-bounds
  25              	@ -fchkp-optimize -fchkp-store-bounds -fchkp-use-static-bounds
  26              	@ -fchkp-use-static-const-bounds -fchkp-use-wrappers -fcode-hoisting
  27              	@ -fcombine-stack-adjustments -fcommon -fcompare-elim -fcprop-registers
  28              	@ -fcrossjumping -fcse-follow-jumps -fdata-sections -fdefer-pop
  29              	@ -fdelete-null-pointer-checks -fdevirtualize -fdevirtualize-speculatively
  30              	@ -fdwarf2-cfi-asm -fearly-inlining -feliminate-unused-debug-types
  31              	@ -fexpensive-optimizations -fforward-propagate -ffp-int-builtin-inexact
  32              	@ -ffunction-cse -ffunction-sections -fgcse -fgcse-lm -fgnu-runtime
  33              	@ -fgnu-unique -fguess-branch-probability -fhoist-adjacent-loads -fident
  34              	@ -fif-conversion -fif-conversion2 -findirect-inlining -finline
  35              	@ -finline-atomics -finline-functions-called-once -finline-small-functions
  36              	@ -fipa-bit-cp -fipa-cp -fipa-icf -fipa-icf-functions -fipa-icf-variables
  37              	@ -fipa-profile -fipa-pure-const -fipa-ra -fipa-reference -fipa-sra
  38              	@ -fipa-vrp -fira-hoist-pressure -fira-share-save-slots
  39              	@ -fira-share-spill-slots -fisolate-erroneous-paths-dereference -fivopts
  40              	@ -fkeep-static-consts -fleading-underscore -flifetime-dse -flra-remat
  41              	@ -flto-odr-type-merging -fmath-errno -fmerge-constants
  42              	@ -fmerge-debug-strings -fmove-loop-invariants -fomit-frame-pointer
  43              	@ -foptimize-sibling-calls -foptimize-strlen -fpartial-inlining -fpeephole
  44              	@ -fpeephole2 -fplt -fprefetch-loop-arrays -freg-struct-return
  45              	@ -freorder-blocks -freorder-functions -frerun-cse-after-loop
  46              	@ -fsched-critical-path-heuristic -fsched-dep-count-heuristic
  47              	@ -fsched-group-heuristic -fsched-interblock -fsched-last-insn-heuristic
  48              	@ -fsched-pressure -fsched-rank-heuristic -fsched-spec
  49              	@ -fsched-spec-insn-heuristic -fsched-stalled-insns-dep -fschedule-insns
  50              	@ -fschedule-insns2 -fsection-anchors -fsemantic-interposition
  51              	@ -fshow-column -fshrink-wrap -fshrink-wrap-separate -fsigned-zeros
  52              	@ -fsplit-ivs-in-unroller -fsplit-wide-types -fssa-backprop -fssa-phiopt
  53              	@ -fstdarg-opt -fstore-merging -fstrict-aliasing -fstrict-overflow
  54              	@ -fstrict-volatile-bitfields -fsync-libcalls -fthread-jumps
  55              	@ -ftoplevel-reorder -ftrapping-math -ftree-bit-ccp -ftree-builtin-call-dce
  56              	@ -ftree-ccp -ftree-ch -ftree-coalesce-vars -ftree-copy-prop -ftree-cselim
  57              	@ -ftree-dce -ftree-dominator-opts -ftree-dse -ftree-forwprop -ftree-fre
ARM GAS  /tmp/cccjJSci.s 			page 2


  58              	@ -ftree-loop-if-convert -ftree-loop-im -ftree-loop-ivcanon
  59              	@ -ftree-loop-optimize -ftree-parallelize-loops= -ftree-phiprop -ftree-pre
  60              	@ -ftree-pta -ftree-reassoc -ftree-scev-cprop -ftree-sink -ftree-slsr
  61              	@ -ftree-sra -ftree-switch-conversion -ftree-tail-merge -ftree-ter
  62              	@ -ftree-vrp -funit-at-a-time -fverbose-asm -fzero-initialized-in-bss
  63              	@ -masm-syntax-unified -mfix-cortex-m3-ldrd -mlittle-endian
  64              	@ -mpic-data-is-text-relative -msched-prolog -mthumb -munaligned-access
  65              	@ -mvectorize-with-neon-quad
  66              	
  67              		.text
  68              		.section	.text.DHT_Init,"ax",%progbits
  69              		.align	1
  70              		.p2align 2,,3
  71              		.global	DHT_Init
  72              		.syntax unified
  73              		.thumb
  74              		.thumb_func
  75              		.fpu softvfp
  76              		.type	DHT_Init, %function
  77              	DHT_Init:
  78              		@ args = 0, pretend = 0, frame = 0
  79              		@ frame_needed = 0, uses_anonymous_args = 0
  80              		@ link register save eliminated.
  81              	@ inc/dht/dht.c:15: 		AM2302_prt = 1;
  82 0000 0120     		movs	r0, #1	@ tmp117,
  83              	@ inc/dht/dht.c:11: 		GPIOA->CRH = (GPIOA->CRH & 0x0fffffff) | 0x60000000;
  84 0002 054A     		ldr	r2, .L3	@ tmp113,
  85              	@ inc/dht/dht.c:15: 		AM2302_prt = 1;
  86 0004 0549     		ldr	r1, .L3+4	@ tmp116,
  87              	@ inc/dht/dht.c:11: 		GPIOA->CRH = (GPIOA->CRH & 0x0fffffff) | 0x60000000;
  88 0006 5368     		ldr	r3, [r2, #4]	@ _1, MEM[(struct GPIO_TypeDef *)1073809408B].CRH
  89 0008 23F07043 		bic	r3, r3, #-268435456	@ tmp114, _1,
  90 000c 43F0C043 		orr	r3, r3, #1610612736	@ _3, tmp114,
  91 0010 5360     		str	r3, [r2, #4]	@ _3, MEM[(struct GPIO_TypeDef *)1073809408B].CRH
  92              	@ inc/dht/dht.c:15: 		AM2302_prt = 1;
  93 0012 0860     		str	r0, [r1]	@ tmp117, MEM[(volatile long unsigned int *)1109459388B]
  94              	@ inc/dht/dht.c:16: 	}
  95 0014 7047     		bx	lr	@
  96              	.L4:
  97 0016 00BF     		.align	2
  98              	.L3:
  99 0018 00080140 		.word	1073809408
 100 001c BC012142 		.word	1109459388
 101              		.size	DHT_Init, .-DHT_Init
 102              		.section	.text.DHT_Start,"ax",%progbits
 103              		.align	1
 104              		.p2align 2,,3
 105              		.global	DHT_Start
 106              		.syntax unified
 107              		.thumb
 108              		.thumb_func
 109              		.fpu softvfp
 110              		.type	DHT_Start, %function
 111              	DHT_Start:
 112              		@ args = 0, pretend = 0, frame = 0
 113              		@ frame_needed = 0, uses_anonymous_args = 0
 114              		@ link register save eliminated.
ARM GAS  /tmp/cccjJSci.s 			page 3


 115 0000 30B4     		push	{r4, r5}	@
 116              	@ inc/dht/dht.c:20: 		*(&AM2302_pin+0x20) = 0;	//Init H & T Mesaure
 117 0002 0025     		movs	r5, #0	@ tmp115,
 118              	@ ./inc/tool/delay.h:110: 		while( STCLK_MS*ms > (delay_us - SysTick->VAL) );
 119 0004 42F22734 		movw	r4, #8999	@ tmp121,
 120              	@ inc/dht/dht.c:20: 		*(&AM2302_pin+0x20) = 0;	//Init H & T Mesaure
 121 0008 084A     		ldr	r2, .L9	@ tmp114,
 122              	@ ./inc/tool/delay.h:109: 		delay_us = SysTick->VAL; 
 123 000a 094B     		ldr	r3, .L9+4	@ tmp116,
 124              	@ inc/dht/dht.c:20: 		*(&AM2302_pin+0x20) = 0;	//Init H & T Mesaure
 125 000c 1560     		str	r5, [r2]	@ tmp115, MEM[(volatile long unsigned int *)1109459388B]
 126              	@ ./inc/tool/delay.h:110: 		while( STCLK_MS*ms > (delay_us - SysTick->VAL) );
 127 000e 1846     		mov	r0, r3	@ tmp119, tmp116
 128              	@ ./inc/tool/delay.h:109: 		delay_us = SysTick->VAL; 
 129 0010 0849     		ldr	r1, .L9+8	@ tmp124,
 130 0012 9B68     		ldr	r3, [r3, #8]	@ _4, MEM[(struct SysTick_Type *)3758153744B].VAL
 131 0014 0B60     		str	r3, [r1]	@ _4, delay_us
 132              	.L6:
 133              	@ ./inc/tool/delay.h:110: 		while( STCLK_MS*ms > (delay_us - SysTick->VAL) );
 134 0016 0B68     		ldr	r3, [r1]	@ delay_us.0_5, delay_us
 135 0018 8268     		ldr	r2, [r0, #8]	@ _6, MEM[(struct SysTick_Type *)3758153744B].VAL
 136 001a 9B1A     		subs	r3, r3, r2	@ tmp120, delay_us.0_5, _6
 137 001c A342     		cmp	r3, r4	@ tmp120, tmp121
 138 001e FAD9     		bls	.L6	@,
 139              	@ inc/dht/dht.c:25: 	}
 140 0020 30BC     		pop	{r4, r5}	@
 141              	@ inc/dht/dht.c:22: 		*(&AM2302_pin+0x20) = 1;	//Init H & T Mesaure
 142 0022 0122     		movs	r2, #1	@ tmp123,
 143 0024 014B     		ldr	r3, .L9	@ tmp122,
 144 0026 1A60     		str	r2, [r3]	@ tmp123, MEM[(volatile long unsigned int *)1109459388B]
 145              	@ inc/dht/dht.c:25: 	}
 146 0028 7047     		bx	lr	@
 147              	.L10:
 148 002a 00BF     		.align	2
 149              	.L9:
 150 002c BC012142 		.word	1109459388
 151 0030 10E000E0 		.word	-536813552
 152 0034 00000000 		.word	delay_us
 153              		.size	DHT_Start, .-DHT_Start
 154              		.section	.text.DHT_read,"ax",%progbits
 155              		.align	1
 156              		.p2align 2,,3
 157              		.global	DHT_read
 158              		.syntax unified
 159              		.thumb
 160              		.thumb_func
 161              		.fpu softvfp
 162              		.type	DHT_read, %function
 163              	DHT_read:
 164              		@ args = 0, pretend = 0, frame = 0
 165              		@ frame_needed = 0, uses_anonymous_args = 0
 166 0000 2DE9F041 		push	{r4, r5, r6, r7, r8, lr}	@
 167              	@ inc/dht/dht.c:41: 		*(&AM2302_pin+0x20) = 0;	//Init H & T Mesaure
 168 0004 0026     		movs	r6, #0	@ tmp174,
 169              	@ ./inc/tool/delay.h:110: 		while( STCLK_MS*ms > (delay_us - SysTick->VAL) );
 170 0006 42F22737 		movw	r7, #8999	@ tmp180,
 171              	@ inc/dht/dht.c:41: 		*(&AM2302_pin+0x20) = 0;	//Init H & T Mesaure
ARM GAS  /tmp/cccjJSci.s 			page 4


 172 000a 544D     		ldr	r5, .L42	@ tmp173,
 173              	@ ./inc/tool/delay.h:109: 		delay_us = SysTick->VAL; 
 174 000c 544C     		ldr	r4, .L42+4	@ tmp175,
 175              	@ inc/dht/dht.c:41: 		*(&AM2302_pin+0x20) = 0;	//Init H & T Mesaure
 176 000e 2E60     		str	r6, [r5]	@ tmp174, MEM[(volatile long unsigned int *)1109459388B]
 177              	@ ./inc/tool/delay.h:110: 		while( STCLK_MS*ms > (delay_us - SysTick->VAL) );
 178 0010 A446     		mov	ip, r4	@ tmp178, tmp175
 179              	@ ./inc/tool/delay.h:109: 		delay_us = SysTick->VAL; 
 180 0012 544D     		ldr	r5, .L42+8	@ tmp242,
 181 0014 A468     		ldr	r4, [r4, #8]	@ _70, MEM[(struct SysTick_Type *)3758153744B].VAL
 182 0016 2C60     		str	r4, [r5]	@ _70, delay_us
 183              	.L12:
 184              	@ ./inc/tool/delay.h:110: 		while( STCLK_MS*ms > (delay_us - SysTick->VAL) );
 185 0018 2C68     		ldr	r4, [r5]	@ delay_us.0_71, delay_us
 186 001a DCF80860 		ldr	r6, [ip, #8]	@ _72, MEM[(struct SysTick_Type *)3758153744B].VAL
 187 001e A41B     		subs	r4, r4, r6	@ tmp179, delay_us.0_71, _72
 188 0020 BC42     		cmp	r4, r7	@ tmp179, tmp180
 189 0022 F9D9     		bls	.L12	@,
 190              	@ inc/dht/dht.c:43: 		*(&AM2302_pin+0x20) = 1;	//Init H & T Mesaure
 191 0024 0126     		movs	r6, #1	@ tmp182,
 192 0026 4D4C     		ldr	r4, .L42	@ tmp181,
 193              	@ ./inc/tool/delay.h:105: 		while( STCLK_US*us > (delay_us - SysTick->VAL) );
 194 0028 4D4F     		ldr	r7, .L42+4	@ tmp186,
 195              	@ inc/dht/dht.c:43: 		*(&AM2302_pin+0x20) = 1;	//Init H & T Mesaure
 196 002a 2660     		str	r6, [r4]	@ tmp182, MEM[(volatile long unsigned int *)1109459388B]
 197              	@ ./inc/tool/delay.h:104: 		delay_us = SysTick->VAL; 
 198 002c DCF80840 		ldr	r4, [ip, #8]	@ _66, MEM[(struct SysTick_Type *)3758153744B].VAL
 199 0030 2C60     		str	r4, [r5]	@ _66, delay_us
 200              	.L13:
 201              	@ ./inc/tool/delay.h:105: 		while( STCLK_US*us > (delay_us - SysTick->VAL) );
 202 0032 2C68     		ldr	r4, [r5]	@ delay_us.10_67, delay_us
 203 0034 BE68     		ldr	r6, [r7, #8]	@ _68, MEM[(struct SysTick_Type *)3758153744B].VAL
 204 0036 A41B     		subs	r4, r4, r6	@ tmp187, delay_us.10_67, _68
 205 0038 082C     		cmp	r4, #8	@ tmp187,
 206 003a FAD9     		bls	.L13	@,
 207              	@ inc/dht/dht.c:46: 		trg1 = SysTick->VAL;		
 208 003c BC68     		ldr	r4, [r7, #8]	@ _1, MEM[(struct SysTick_Type *)3758153744B].VAL
 209 003e 4A4E     		ldr	r6, .L42+12	@ tmp243,
 210              	@ inc/dht/dht.c:48: 		{ if(TIM_US*40 < (trg1 - SysTick->VAL)) return 1;} 	// < 40us
 211 0040 DFF81CE1 		ldr	lr, .L42+4	@ tmp252,
 212              	@ inc/dht/dht.c:46: 		trg1 = SysTick->VAL;		
 213 0044 3460     		str	r4, [r6]	@ _1, trg1
 214              	@ inc/dht/dht.c:47: 		while( *(P_PIN) == 1)
 215 0046 07E0     		b	.L14	@
 216              	.L16:
 217              	@ inc/dht/dht.c:48: 		{ if(TIM_US*40 < (trg1 - SysTick->VAL)) return 1;} 	// < 40us
 218 0048 3468     		ldr	r4, [r6]	@ trg1.1_2, trg1
 219 004a DEF808C0 		ldr	ip, [lr, #8]	@ _3, MEM[(struct SysTick_Type *)3758153744B].VAL
 220 004e A4EB0C04 		sub	r4, r4, ip	@ tmp192, trg1.1_2, _3
 221 0052 B4F5B47F 		cmp	r4, #360	@ tmp192,
 222 0056 74D8     		bhi	.L31	@,
 223              	.L14:
 224              	@ inc/dht/dht.c:47: 		while( *(P_PIN) == 1)
 225 0058 1F68     		ldr	r7, [r3]	@ _5, *P_PIN_50(D)
 226 005a 012F     		cmp	r7, #1	@ _5,
 227 005c F4D0     		beq	.L16	@,
 228              	@ ./inc/tool/delay.h:104: 		delay_us = SysTick->VAL; 
ARM GAS  /tmp/cccjJSci.s 			page 5


 229 005e 404C     		ldr	r4, .L42+4	@ tmp193,
 230              	@ ./inc/tool/delay.h:105: 		while( STCLK_US*us > (delay_us - SysTick->VAL) );
 231 0060 A446     		mov	ip, r4	@ tmp196, tmp193
 232              	@ ./inc/tool/delay.h:104: 		delay_us = SysTick->VAL; 
 233 0062 A468     		ldr	r4, [r4, #8]	@ _74, MEM[(struct SysTick_Type *)3758153744B].VAL
 234 0064 2C60     		str	r4, [r5]	@ _74, delay_us
 235              	.L17:
 236              	@ ./inc/tool/delay.h:105: 		while( STCLK_US*us > (delay_us - SysTick->VAL) );
 237 0066 2C68     		ldr	r4, [r5]	@ delay_us.10_75, delay_us
 238 0068 DCF80870 		ldr	r7, [ip, #8]	@ _76, MEM[(struct SysTick_Type *)3758153744B].VAL
 239 006c E41B     		subs	r4, r4, r7	@ tmp197, delay_us.10_75, _76
 240 006e 082C     		cmp	r4, #8	@ tmp197,
 241 0070 F9D9     		bls	.L17	@,
 242              	@ inc/dht/dht.c:51: 		trg1 = SysTick->VAL;		
 243 0072 DCF80840 		ldr	r4, [ip, #8]	@ _6, MEM[(struct SysTick_Type *)3758153744B].VAL
 244              	@ inc/dht/dht.c:53: 		{ if(TIM_US*100 < (trg1 - SysTick->VAL)) return 2;} 	// < 100us
 245 0076 DFF8E8C0 		ldr	ip, .L42+4	@ tmp251,
 246              	@ inc/dht/dht.c:51: 		trg1 = SysTick->VAL;		
 247 007a 3460     		str	r4, [r6]	@ _6, trg1
 248              	@ inc/dht/dht.c:52: 		while( *(P_PIN) == 0)
 249 007c 06E0     		b	.L18	@
 250              	.L19:
 251              	@ inc/dht/dht.c:53: 		{ if(TIM_US*100 < (trg1 - SysTick->VAL)) return 2;} 	// < 100us
 252 007e 3468     		ldr	r4, [r6]	@ trg1.2_7, trg1
 253 0080 DCF80870 		ldr	r7, [ip, #8]	@ _8, MEM[(struct SysTick_Type *)3758153744B].VAL
 254 0084 E41B     		subs	r4, r4, r7	@ tmp202, trg1.2_7, _8
 255 0086 B4F5617F 		cmp	r4, #900	@ tmp202,
 256 008a 5DD8     		bhi	.L32	@,
 257              	.L18:
 258              	@ inc/dht/dht.c:52: 		while( *(P_PIN) == 0)
 259 008c 1C68     		ldr	r4, [r3]	@ _10, *P_PIN_50(D)
 260 008e 002C     		cmp	r4, #0	@ _10
 261 0090 F5D0     		beq	.L19	@
 262              	@ ./inc/tool/delay.h:104: 		delay_us = SysTick->VAL; 
 263 0092 334C     		ldr	r4, .L42+4	@ tmp203,
 264              	@ ./inc/tool/delay.h:105: 		while( STCLK_US*us > (delay_us - SysTick->VAL) );
 265 0094 A446     		mov	ip, r4	@ tmp206, tmp203
 266              	@ ./inc/tool/delay.h:104: 		delay_us = SysTick->VAL; 
 267 0096 A468     		ldr	r4, [r4, #8]	@ _78, MEM[(struct SysTick_Type *)3758153744B].VAL
 268 0098 2C60     		str	r4, [r5]	@ _78, delay_us
 269              	.L20:
 270              	@ ./inc/tool/delay.h:105: 		while( STCLK_US*us > (delay_us - SysTick->VAL) );
 271 009a 2C68     		ldr	r4, [r5]	@ delay_us.10_79, delay_us
 272 009c DCF80870 		ldr	r7, [ip, #8]	@ _80, MEM[(struct SysTick_Type *)3758153744B].VAL
 273 00a0 E41B     		subs	r4, r4, r7	@ tmp207, delay_us.10_79, _80
 274 00a2 082C     		cmp	r4, #8	@ tmp207,
 275 00a4 F9D9     		bls	.L20	@,
 276              	@ inc/dht/dht.c:57: 		trg1 = SysTick->VAL;		
 277 00a6 DCF80840 		ldr	r4, [ip, #8]	@ _11, MEM[(struct SysTick_Type *)3758153744B].VAL
 278              	@ inc/dht/dht.c:59: 		{ if(TIM_US*100 < (trg1 - SysTick->VAL)) return 3;} 	// < 100us
 279 00aa 2D4F     		ldr	r7, .L42+4	@ tmp250,
 280              	@ inc/dht/dht.c:57: 		trg1 = SysTick->VAL;		
 281 00ac 3460     		str	r4, [r6]	@ _11, trg1
 282              	@ inc/dht/dht.c:58: 		while( *(P_PIN) == 1)
 283 00ae 05E0     		b	.L21	@
 284              	.L22:
 285              	@ inc/dht/dht.c:59: 		{ if(TIM_US*100 < (trg1 - SysTick->VAL)) return 3;} 	// < 100us
ARM GAS  /tmp/cccjJSci.s 			page 6


 286 00b0 3468     		ldr	r4, [r6]	@ trg1.3_12, trg1
 287 00b2 BD68     		ldr	r5, [r7, #8]	@ _13, MEM[(struct SysTick_Type *)3758153744B].VAL
 288 00b4 641B     		subs	r4, r4, r5	@ tmp212, trg1.3_12, _13
 289 00b6 B4F5617F 		cmp	r4, #900	@ tmp212,
 290 00ba 48D8     		bhi	.L33	@,
 291              	.L21:
 292              	@ inc/dht/dht.c:58: 		while( *(P_PIN) == 1)
 293 00bc 1C68     		ldr	r4, [r3]	@ _15, *P_PIN_50(D)
 294 00be 012C     		cmp	r4, #1	@ _15,
 295 00c0 F6D0     		beq	.L22	@,
 296              	@ inc/dht/dht.c:61: 		for(u08 n=0;n<40;n++){
 297 00c2 4FF0000E 		mov	lr, #0	@ n,
 298              	@ inc/dht/dht.c:64: 			{ if(TIM_MS*2 < (trg1 - SysTick->VAL)) return 4;} // Low <54us
 299 00c6 44F25067 		movw	r7, #18000	@ tmp247,
 300              	@ inc/dht/dht.c:29: 		u32 AMht=0;		// Humidity & Temperature
 301 00ca F446     		mov	ip, lr	@ AMht, n
 302              	@ inc/dht/dht.c:62: 			trg1 = SysTick->VAL;
 303 00cc 244D     		ldr	r5, .L42+4	@ tmp213,
 304              	.L29:
 305 00ce AC68     		ldr	r4, [r5, #8]	@ _16, MEM[(struct SysTick_Type *)3758153744B].VAL
 306 00d0 3460     		str	r4, [r6]	@ _16, trg1
 307              	@ inc/dht/dht.c:63: 			while( *(P_PIN)==0)
 308 00d2 06E0     		b	.L23	@
 309              	.L24:
 310              	@ inc/dht/dht.c:64: 			{ if(TIM_MS*2 < (trg1 - SysTick->VAL)) return 4;} // Low <54us
 311 00d4 3468     		ldr	r4, [r6]	@ trg1.4_17, trg1
 312 00d6 D5F80880 		ldr	r8, [r5, #8]	@ _18, MEM[(struct SysTick_Type *)3758153744B].VAL
 313 00da A4EB0804 		sub	r4, r4, r8	@ tmp217, trg1.4_17, _18
 314 00de BC42     		cmp	r4, r7	@ tmp217, tmp247
 315 00e0 38D8     		bhi	.L34	@,
 316              	.L23:
 317              	@ inc/dht/dht.c:63: 			while( *(P_PIN)==0)
 318 00e2 1C68     		ldr	r4, [r3]	@ _20, *P_PIN_50(D)
 319 00e4 002C     		cmp	r4, #0	@ _20
 320 00e6 F5D0     		beq	.L24	@
 321              	@ inc/dht/dht.c:66: 			trg1 = SysTick->VAL;
 322 00e8 AC68     		ldr	r4, [r5, #8]	@ _21, MEM[(struct SysTick_Type *)3758153744B].VAL
 323 00ea 3460     		str	r4, [r6]	@ _21, trg1
 324              	@ inc/dht/dht.c:67: 			while( *(P_PIN)==1)
 325 00ec 01E0     		b	.L25	@
 326              	.L26:
 327              	@ inc/dht/dht.c:68: 			{ if (TIM_MS*2 < (trg1 - SysTick->VAL)) return 5;} // High <81us
 328 00ee BC42     		cmp	r4, r7	@ tmp223, tmp247
 329 00f0 32D8     		bhi	.L35	@,
 330              	.L25:
 331              	@ inc/dht/dht.c:67: 			while( *(P_PIN)==1)
 332 00f2 1C68     		ldr	r4, [r3]	@ _25, *P_PIN_50(D)
 333 00f4 012C     		cmp	r4, #1	@ _25,
 334              	@ inc/dht/dht.c:68: 			{ if (TIM_MS*2 < (trg1 - SysTick->VAL)) return 5;} // High <81us
 335 00f6 3468     		ldr	r4, [r6]	@ trg1.5_22, trg1
 336 00f8 D5F80880 		ldr	r8, [r5, #8]	@ _23,
 337 00fc A4EB0804 		sub	r4, r4, r8	@ tmp223, trg1.5_22, _23
 338              	@ inc/dht/dht.c:67: 			while( *(P_PIN)==1)
 339 0100 F5D0     		beq	.L26	@,
 340              	@ inc/dht/dht.c:70: 			trg1 = trg1 - SysTick->VAL;
 341 0102 3460     		str	r4, [r6]	@ _28, trg1
 342              	@ inc/dht/dht.c:73: 			if(n<32){		// Humidity & Temperature
ARM GAS  /tmp/cccjJSci.s 			page 7


 343 0104 BEF11F0F 		cmp	lr, #31	@ n,
 344              	@ inc/dht/dht.c:75: 				if( trg1 > 40*TIM_US){ AMht |= 1; }
 345 0108 3468     		ldr	r4, [r6]	@ trg1.7_29, trg1
 346              	@ inc/dht/dht.c:73: 			if(n<32){		// Humidity & Temperature
 347 010a 06D8     		bhi	.L28	@,
 348              	@ inc/dht/dht.c:74: 				AMht <<= 1;
 349 010c 4FEA4C0C 		lsl	ip, ip, #1	@ AMht, AMht,
 350              	@ inc/dht/dht.c:75: 				if( trg1 > 40*TIM_US){ AMht |= 1; }
 351 0110 B4F5B47F 		cmp	r4, #360	@ trg1.7_29,
 352 0114 88BF     		it	hi
 353 0116 4CF0010C 		orrhi	ip, ip, #1	@ AMht, AMht,
 354              	.L28:
 355              	@ inc/dht/dht.c:61: 		for(u08 n=0;n<40;n++){
 356 011a 0EF1010E 		add	lr, lr, #1	@ tmp230, n,
 357 011e 5FFA8EFE 		uxtb	lr, lr	@ n, tmp230
 358 0122 BEF1280F 		cmp	lr, #40	@ n,
 359 0126 D2D1     		bne	.L29	@,
 360              	@ inc/dht/dht.c:82: 		if(czuj==AM2302){
 361 0128 012A     		cmp	r2, #1	@ czuj,
 362              	@ inc/dht/dht.c:86: 			*AMh = (AMht>>24);
 363 012a 16BF     		itet	ne
 364 012c 4FEA1C63 		lsrne	r3, ip, #24	@ tmp234, AMht,
 365              	@ inc/dht/dht.c:83: 			*AMh = AMht >> 16;
 366 0130 4FEA1C43 		lsreq	r3, ip, #16	@ tmp231, AMht,
 367              	@ inc/dht/dht.c:87: 			*AMt = (AMht>>8)&0xff; 
 368 0134 CCF3072C 		ubfxne	ip, ip, #8, #8	@ tmp238, AMht,,
 369              	@ inc/dht/dht.c:86: 			*AMh = (AMht>>24);
 370 0138 0380     		strh	r3, [r0]	@ movhi	@ tmp234, *AMh_54(D)
 371              	@ inc/dht/dht.c:93: 		return 0;
 372 013a 0020     		movs	r0, #0	@ <retval>,
 373              	@ inc/dht/dht.c:87: 			*AMt = (AMht>>8)&0xff; 
 374 013c A1F800C0 		strh	ip, [r1]	@ movhi	@ tmp238, *AMt_56(D)
 375 0140 00E0     		b	.L15	@
 376              	.L31:
 377              	@ inc/dht/dht.c:48: 		{ if(TIM_US*40 < (trg1 - SysTick->VAL)) return 1;} 	// < 40us
 378 0142 3846     		mov	r0, r7	@ <retval>, _5
 379              	.L15:
 380              	@ inc/dht/dht.c:94: 	}
 381 0144 BDE8F081 		pop	{r4, r5, r6, r7, r8, pc}	@
 382              	.L32:
 383              	@ inc/dht/dht.c:53: 		{ if(TIM_US*100 < (trg1 - SysTick->VAL)) return 2;} 	// < 100us
 384 0148 0220     		movs	r0, #2	@ <retval>,
 385              	@ inc/dht/dht.c:94: 	}
 386 014a BDE8F081 		pop	{r4, r5, r6, r7, r8, pc}	@
 387              	.L33:
 388              	@ inc/dht/dht.c:59: 		{ if(TIM_US*100 < (trg1 - SysTick->VAL)) return 3;} 	// < 100us
 389 014e 0320     		movs	r0, #3	@ <retval>,
 390              	@ inc/dht/dht.c:94: 	}
 391 0150 BDE8F081 		pop	{r4, r5, r6, r7, r8, pc}	@
 392              	.L34:
 393              	@ inc/dht/dht.c:64: 			{ if(TIM_MS*2 < (trg1 - SysTick->VAL)) return 4;} // Low <54us
 394 0154 0420     		movs	r0, #4	@ <retval>,
 395 0156 F5E7     		b	.L15	@
 396              	.L35:
 397              	@ inc/dht/dht.c:68: 			{ if (TIM_MS*2 < (trg1 - SysTick->VAL)) return 5;} // High <81us
 398 0158 0520     		movs	r0, #5	@ <retval>,
 399 015a F3E7     		b	.L15	@
ARM GAS  /tmp/cccjJSci.s 			page 8


 400              	.L43:
 401              		.align	2
 402              	.L42:
 403 015c BC012142 		.word	1109459388
 404 0160 10E000E0 		.word	-536813552
 405 0164 00000000 		.word	delay_us
 406 0168 00000000 		.word	trg1
 407              		.size	DHT_read, .-DHT_read
 408              		.section	.text.AM23_read,"ax",%progbits
 409              		.align	1
 410              		.p2align 2,,3
 411              		.global	AM23_read
 412              		.syntax unified
 413              		.thumb
 414              		.thumb_func
 415              		.fpu softvfp
 416              		.type	AM23_read, %function
 417              	AM23_read:
 418              		@ args = 0, pretend = 0, frame = 0
 419              		@ frame_needed = 0, uses_anonymous_args = 0
 420              		@ link register save eliminated.
 421              	@ inc/dht/dht.c:101: 		*(hw->prt) = 0;	//Init H & T Mesaure
 422 0000 0022     		movs	r2, #0	@ tmp173,
 423              	@ inc/dht/dht.c:96: u08  AM23_read(AM23_hw_t * hw){
 424 0002 F0B4     		push	{r4, r5, r6, r7}	@
 425              	@ ./inc/tool/delay.h:110: 		while( STCLK_MS*ms > (delay_us - SysTick->VAL) );
 426 0004 42F22735 		movw	r5, #8999	@ tmp179,
 427              	@ inc/dht/dht.c:101: 		*(hw->prt) = 0;	//Init H & T Mesaure
 428 0008 4668     		ldr	r6, [r0, #4]	@ _1, hw_51(D)->prt
 429              	@ ./inc/tool/delay.h:109: 		delay_us = SysTick->VAL; 
 430 000a 4D4B     		ldr	r3, .L76	@ tmp174,
 431              	@ inc/dht/dht.c:101: 		*(hw->prt) = 0;	//Init H & T Mesaure
 432 000c 3260     		str	r2, [r6]	@ tmp173, *_1
 433              	@ ./inc/tool/delay.h:110: 		while( STCLK_MS*ms > (delay_us - SysTick->VAL) );
 434 000e 1C46     		mov	r4, r3	@ tmp177, tmp174
 435              	@ ./inc/tool/delay.h:109: 		delay_us = SysTick->VAL; 
 436 0010 4C4A     		ldr	r2, .L76+4	@ tmp241,
 437 0012 9B68     		ldr	r3, [r3, #8]	@ _71, MEM[(struct SysTick_Type *)3758153744B].VAL
 438 0014 1360     		str	r3, [r2]	@ _71, delay_us
 439              	.L45:
 440              	@ ./inc/tool/delay.h:110: 		while( STCLK_MS*ms > (delay_us - SysTick->VAL) );
 441 0016 1368     		ldr	r3, [r2]	@ delay_us.0_72, delay_us
 442 0018 A168     		ldr	r1, [r4, #8]	@ _73, MEM[(struct SysTick_Type *)3758153744B].VAL
 443 001a 5B1A     		subs	r3, r3, r1	@ tmp178, delay_us.0_72, _73
 444 001c AB42     		cmp	r3, r5	@ tmp178, tmp179
 445 001e FAD9     		bls	.L45	@,
 446              	@ inc/dht/dht.c:103: 		*(hw->prt) = 1;	//Init H & T Mesaure
 447 0020 0123     		movs	r3, #1	@ tmp180,
 448 0022 3360     		str	r3, [r6]	@ tmp180, *_1
 449              	@ ./inc/tool/delay.h:104: 		delay_us = SysTick->VAL; 
 450 0024 A368     		ldr	r3, [r4, #8]	@ _67, MEM[(struct SysTick_Type *)3758153744B].VAL
 451              	@ ./inc/tool/delay.h:105: 		while( STCLK_US*us > (delay_us - SysTick->VAL) );
 452 0026 464C     		ldr	r4, .L76	@ tmp184,
 453              	@ ./inc/tool/delay.h:104: 		delay_us = SysTick->VAL; 
 454 0028 1360     		str	r3, [r2]	@ _67, delay_us
 455              	.L46:
 456              	@ ./inc/tool/delay.h:105: 		while( STCLK_US*us > (delay_us - SysTick->VAL) );
ARM GAS  /tmp/cccjJSci.s 			page 9


 457 002a 1368     		ldr	r3, [r2]	@ delay_us.10_68, delay_us
 458 002c A168     		ldr	r1, [r4, #8]	@ _69, MEM[(struct SysTick_Type *)3758153744B].VAL
 459 002e 5B1A     		subs	r3, r3, r1	@ tmp185, delay_us.10_68, _69
 460 0030 082B     		cmp	r3, #8	@ tmp185,
 461 0032 FAD9     		bls	.L46	@,
 462              	@ inc/dht/dht.c:106: 		trg1 = SysTick->VAL;		
 463 0034 A368     		ldr	r3, [r4, #8]	@ _3, MEM[(struct SysTick_Type *)3758153744B].VAL
 464 0036 4449     		ldr	r1, .L76+8	@ tmp242,
 465              	@ inc/dht/dht.c:107: 		while( *(hw->pin) == 1)
 466 0038 0568     		ldr	r5, [r0]	@ _7, hw_51(D)->pin
 467              	@ inc/dht/dht.c:108: 		{ if(TIM_US*40 < (trg1 - SysTick->VAL)) return 1;} 	// < 40us
 468 003a 414F     		ldr	r7, .L76	@ tmp251,
 469              	@ inc/dht/dht.c:106: 		trg1 = SysTick->VAL;		
 470 003c 0B60     		str	r3, [r1]	@ _3, trg1
 471              	@ inc/dht/dht.c:107: 		while( *(hw->pin) == 1)
 472 003e 05E0     		b	.L47	@
 473              	.L49:
 474              	@ inc/dht/dht.c:108: 		{ if(TIM_US*40 < (trg1 - SysTick->VAL)) return 1;} 	// < 40us
 475 0040 0B68     		ldr	r3, [r1]	@ trg1.11_4, trg1
 476 0042 BE68     		ldr	r6, [r7, #8]	@ _5, MEM[(struct SysTick_Type *)3758153744B].VAL
 477 0044 9B1B     		subs	r3, r3, r6	@ tmp190, trg1.11_4, _5
 478 0046 B3F5B47F 		cmp	r3, #360	@ tmp190,
 479 004a 65D8     		bhi	.L64	@,
 480              	.L47:
 481              	@ inc/dht/dht.c:107: 		while( *(hw->pin) == 1)
 482 004c 2C68     		ldr	r4, [r5]	@ _8, *_7
 483 004e 012C     		cmp	r4, #1	@ _8,
 484 0050 F6D0     		beq	.L49	@,
 485              	@ ./inc/tool/delay.h:104: 		delay_us = SysTick->VAL; 
 486 0052 3B4B     		ldr	r3, .L76	@ tmp191,
 487              	@ ./inc/tool/delay.h:105: 		while( STCLK_US*us > (delay_us - SysTick->VAL) );
 488 0054 1E46     		mov	r6, r3	@ tmp194, tmp191
 489              	@ ./inc/tool/delay.h:104: 		delay_us = SysTick->VAL; 
 490 0056 9B68     		ldr	r3, [r3, #8]	@ _75, MEM[(struct SysTick_Type *)3758153744B].VAL
 491 0058 1360     		str	r3, [r2]	@ _75, delay_us
 492              	.L50:
 493              	@ ./inc/tool/delay.h:105: 		while( STCLK_US*us > (delay_us - SysTick->VAL) );
 494 005a 1368     		ldr	r3, [r2]	@ delay_us.10_76, delay_us
 495 005c B468     		ldr	r4, [r6, #8]	@ _77, MEM[(struct SysTick_Type *)3758153744B].VAL
 496 005e 1B1B     		subs	r3, r3, r4	@ tmp195, delay_us.10_76, _77
 497 0060 082B     		cmp	r3, #8	@ tmp195,
 498 0062 FAD9     		bls	.L50	@,
 499              	@ inc/dht/dht.c:111: 		trg1 = SysTick->VAL;		
 500 0064 B368     		ldr	r3, [r6, #8]	@ _9, MEM[(struct SysTick_Type *)3758153744B].VAL
 501              	@ inc/dht/dht.c:113: 		{ if(TIM_US*100 < (trg1 - SysTick->VAL)) return 2;} 	// < 100us
 502 0066 364E     		ldr	r6, .L76	@ tmp250,
 503              	@ inc/dht/dht.c:111: 		trg1 = SysTick->VAL;		
 504 0068 0B60     		str	r3, [r1]	@ _9, trg1
 505              	@ inc/dht/dht.c:112: 		while( *(hw->pin) == 0)
 506 006a 05E0     		b	.L51	@
 507              	.L52:
 508              	@ inc/dht/dht.c:113: 		{ if(TIM_US*100 < (trg1 - SysTick->VAL)) return 2;} 	// < 100us
 509 006c 0B68     		ldr	r3, [r1]	@ trg1.12_10, trg1
 510 006e B468     		ldr	r4, [r6, #8]	@ _11, MEM[(struct SysTick_Type *)3758153744B].VAL
 511 0070 1B1B     		subs	r3, r3, r4	@ tmp200, trg1.12_10, _11
 512 0072 B3F5617F 		cmp	r3, #900	@ tmp200,
 513 0076 52D8     		bhi	.L65	@,
ARM GAS  /tmp/cccjJSci.s 			page 10


 514              	.L51:
 515              	@ inc/dht/dht.c:112: 		while( *(hw->pin) == 0)
 516 0078 2B68     		ldr	r3, [r5]	@ _14, *_7
 517 007a 002B     		cmp	r3, #0	@ _14
 518 007c F6D0     		beq	.L52	@
 519              	@ ./inc/tool/delay.h:104: 		delay_us = SysTick->VAL; 
 520 007e 304B     		ldr	r3, .L76	@ tmp201,
 521              	@ ./inc/tool/delay.h:105: 		while( STCLK_US*us > (delay_us - SysTick->VAL) );
 522 0080 1E46     		mov	r6, r3	@ tmp204, tmp201
 523              	@ ./inc/tool/delay.h:104: 		delay_us = SysTick->VAL; 
 524 0082 9B68     		ldr	r3, [r3, #8]	@ _79, MEM[(struct SysTick_Type *)3758153744B].VAL
 525 0084 1360     		str	r3, [r2]	@ _79, delay_us
 526              	.L53:
 527              	@ ./inc/tool/delay.h:105: 		while( STCLK_US*us > (delay_us - SysTick->VAL) );
 528 0086 1368     		ldr	r3, [r2]	@ delay_us.10_80, delay_us
 529 0088 B468     		ldr	r4, [r6, #8]	@ _81, MEM[(struct SysTick_Type *)3758153744B].VAL
 530 008a 1B1B     		subs	r3, r3, r4	@ tmp205, delay_us.10_80, _81
 531 008c 082B     		cmp	r3, #8	@ tmp205,
 532 008e FAD9     		bls	.L53	@,
 533              	@ inc/dht/dht.c:117: 		trg1 = SysTick->VAL;		
 534 0090 B368     		ldr	r3, [r6, #8]	@ _15, MEM[(struct SysTick_Type *)3758153744B].VAL
 535              	@ inc/dht/dht.c:119: 		{ if(TIM_US*100 < (trg1 - SysTick->VAL)) return 3;} 	// < 100us
 536 0092 2B4C     		ldr	r4, .L76	@ tmp249,
 537              	@ inc/dht/dht.c:117: 		trg1 = SysTick->VAL;		
 538 0094 0B60     		str	r3, [r1]	@ _15, trg1
 539              	@ inc/dht/dht.c:118: 		while( *(hw->pin) == 1)
 540 0096 05E0     		b	.L54	@
 541              	.L55:
 542              	@ inc/dht/dht.c:119: 		{ if(TIM_US*100 < (trg1 - SysTick->VAL)) return 3;} 	// < 100us
 543 0098 0B68     		ldr	r3, [r1]	@ trg1.13_16, trg1
 544 009a A268     		ldr	r2, [r4, #8]	@ _17, MEM[(struct SysTick_Type *)3758153744B].VAL
 545 009c 9B1A     		subs	r3, r3, r2	@ tmp210, trg1.13_16, _17
 546 009e B3F5617F 		cmp	r3, #900	@ tmp210,
 547 00a2 3FD8     		bhi	.L66	@,
 548              	.L54:
 549              	@ inc/dht/dht.c:118: 		while( *(hw->pin) == 1)
 550 00a4 2B68     		ldr	r3, [r5]	@ _19, *_7
 551 00a6 012B     		cmp	r3, #1	@ _19,
 552 00a8 F6D0     		beq	.L55	@,
 553              	@ inc/dht/dht.c:121: 		for(u08 n=0;n<40;n++){
 554 00aa 0027     		movs	r7, #0	@ n,
 555              	@ inc/dht/dht.c:124: 			{ if(TIM_MS*2 < (trg1 - SysTick->VAL)) return 4;} // Low <54us
 556 00ac 44F25066 		movw	r6, #18000	@ tmp246,
 557              	@ inc/dht/dht.c:97: 		u32 AMht=0;		// Humidity & Temperature
 558 00b0 BC46     		mov	ip, r7	@ AMht, n
 559              	@ inc/dht/dht.c:122: 			trg1 = SysTick->VAL;
 560 00b2 234C     		ldr	r4, .L76	@ tmp211,
 561              	.L62:
 562 00b4 A368     		ldr	r3, [r4, #8]	@ _20, MEM[(struct SysTick_Type *)3758153744B].VAL
 563 00b6 0B60     		str	r3, [r1]	@ _20, trg1
 564              	@ inc/dht/dht.c:123: 			while( *(hw->pin)==0)
 565 00b8 04E0     		b	.L56	@
 566              	.L57:
 567              	@ inc/dht/dht.c:124: 			{ if(TIM_MS*2 < (trg1 - SysTick->VAL)) return 4;} // Low <54us
 568 00ba 0B68     		ldr	r3, [r1]	@ trg1.14_21, trg1
 569 00bc A268     		ldr	r2, [r4, #8]	@ _22, MEM[(struct SysTick_Type *)3758153744B].VAL
 570 00be 9B1A     		subs	r3, r3, r2	@ tmp215, trg1.14_21, _22
ARM GAS  /tmp/cccjJSci.s 			page 11


 571 00c0 B342     		cmp	r3, r6	@ tmp215, tmp246
 572 00c2 32D8     		bhi	.L67	@,
 573              	.L56:
 574              	@ inc/dht/dht.c:123: 			while( *(hw->pin)==0)
 575 00c4 2B68     		ldr	r3, [r5]	@ _24, *_7
 576 00c6 002B     		cmp	r3, #0	@ _24
 577 00c8 F7D0     		beq	.L57	@
 578              	@ inc/dht/dht.c:126: 			trg1 = SysTick->VAL;
 579 00ca A368     		ldr	r3, [r4, #8]	@ _25, MEM[(struct SysTick_Type *)3758153744B].VAL
 580 00cc 0B60     		str	r3, [r1]	@ _25, trg1
 581              	@ inc/dht/dht.c:127: 			while( *(hw->pin)==1)
 582 00ce 01E0     		b	.L58	@
 583              	.L59:
 584              	@ inc/dht/dht.c:128: 			{ if (TIM_MS*2 < (trg1 - SysTick->VAL)) return 5;} // High <81us
 585 00d0 B342     		cmp	r3, r6	@ tmp221, tmp246
 586 00d2 2CD8     		bhi	.L68	@,
 587              	.L58:
 588              	@ inc/dht/dht.c:127: 			while( *(hw->pin)==1)
 589 00d4 2B68     		ldr	r3, [r5]	@ _29, *_7
 590 00d6 012B     		cmp	r3, #1	@ _29,
 591              	@ inc/dht/dht.c:128: 			{ if (TIM_MS*2 < (trg1 - SysTick->VAL)) return 5;} // High <81us
 592 00d8 0B68     		ldr	r3, [r1]	@ trg1.15_26, trg1
 593 00da A268     		ldr	r2, [r4, #8]	@ _27,
 594 00dc A3EB0203 		sub	r3, r3, r2	@ tmp221, trg1.15_26, _27
 595              	@ inc/dht/dht.c:127: 			while( *(hw->pin)==1)
 596 00e0 F6D0     		beq	.L59	@,
 597              	@ inc/dht/dht.c:130: 			trg1 = trg1 - SysTick->VAL;
 598 00e2 0B60     		str	r3, [r1]	@ _32, trg1
 599              	@ inc/dht/dht.c:132: 			if(n<32){		// Humidity & Temperature
 600 00e4 1F2F     		cmp	r7, #31	@ n,
 601              	@ inc/dht/dht.c:134: 				if( trg1 > 40*TIM_US){ AMht |= 1; }
 602 00e6 0B68     		ldr	r3, [r1]	@ trg1.17_33, trg1
 603              	@ inc/dht/dht.c:132: 			if(n<32){		// Humidity & Temperature
 604 00e8 06D8     		bhi	.L61	@,
 605              	@ inc/dht/dht.c:133: 				AMht <<= 1;
 606 00ea 4FEA4C0C 		lsl	ip, ip, #1	@ AMht, AMht,
 607              	@ inc/dht/dht.c:134: 				if( trg1 > 40*TIM_US){ AMht |= 1; }
 608 00ee B3F5B47F 		cmp	r3, #360	@ trg1.17_33,
 609 00f2 88BF     		it	hi
 610 00f4 4CF0010C 		orrhi	ip, ip, #1	@ AMht, AMht,
 611              	.L61:
 612              	@ inc/dht/dht.c:121: 		for(u08 n=0;n<40;n++){
 613 00f8 0137     		adds	r7, r7, #1	@ tmp228, n,
 614 00fa FFB2     		uxtb	r7, r7	@ n, tmp228
 615 00fc 282F     		cmp	r7, #40	@ n,
 616 00fe D9D1     		bne	.L62	@,
 617              	@ inc/dht/dht.c:141: 		if(hw->typ==AM2302){
 618 0100 037B     		ldrb	r3, [r0, #12]	@ zero_extendqisi2	@ hw_51(D)->typ, hw_51(D)->typ
 619 0102 012B     		cmp	r3, #1	@ hw_51(D)->typ,
 620 0104 15D0     		beq	.L75	@,
 621              	@ inc/dht/dht.c:145: 			hw->AMh = (AMht>>24);
 622 0106 4FEA1C63 		lsr	r3, ip, #24	@ tmp233, AMht,
 623              	@ inc/dht/dht.c:146: 			hw->AMt = (AMht>>8)&0xff; 
 624 010a CCF3072C 		ubfx	ip, ip, #8, #8	@ tmp237, AMht,,
 625              	@ inc/dht/dht.c:145: 			hw->AMh = (AMht>>24);
 626 010e 0381     		strh	r3, [r0, #8]	@ movhi	@ tmp233, hw_51(D)->AMh
 627              	@ inc/dht/dht.c:146: 			hw->AMt = (AMht>>8)&0xff; 
ARM GAS  /tmp/cccjJSci.s 			page 12


 628 0110 A0F80AC0 		strh	ip, [r0, #10]	@ movhi	@ tmp237, hw_51(D)->AMt
 629              	@ inc/dht/dht.c:149: 		return 0;
 630 0114 0020     		movs	r0, #0	@ <retval>,
 631 0116 00E0     		b	.L48	@
 632              	.L64:
 633              	@ inc/dht/dht.c:108: 		{ if(TIM_US*40 < (trg1 - SysTick->VAL)) return 1;} 	// < 40us
 634 0118 2046     		mov	r0, r4	@ <retval>, _8
 635              	.L48:
 636              	@ inc/dht/dht.c:150: 	}
 637 011a F0BC     		pop	{r4, r5, r6, r7}	@
 638 011c 7047     		bx	lr	@
 639              	.L65:
 640              	@ inc/dht/dht.c:113: 		{ if(TIM_US*100 < (trg1 - SysTick->VAL)) return 2;} 	// < 100us
 641 011e 0220     		movs	r0, #2	@ <retval>,
 642              	@ inc/dht/dht.c:150: 	}
 643 0120 F0BC     		pop	{r4, r5, r6, r7}	@
 644 0122 7047     		bx	lr	@
 645              	.L66:
 646              	@ inc/dht/dht.c:119: 		{ if(TIM_US*100 < (trg1 - SysTick->VAL)) return 3;} 	// < 100us
 647 0124 0320     		movs	r0, #3	@ <retval>,
 648              	@ inc/dht/dht.c:150: 	}
 649 0126 F0BC     		pop	{r4, r5, r6, r7}	@
 650 0128 7047     		bx	lr	@
 651              	.L67:
 652              	@ inc/dht/dht.c:124: 			{ if(TIM_MS*2 < (trg1 - SysTick->VAL)) return 4;} // Low <54us
 653 012a 0420     		movs	r0, #4	@ <retval>,
 654 012c F5E7     		b	.L48	@
 655              	.L68:
 656              	@ inc/dht/dht.c:128: 			{ if (TIM_MS*2 < (trg1 - SysTick->VAL)) return 5;} // High <81us
 657 012e 0520     		movs	r0, #5	@ <retval>,
 658 0130 F3E7     		b	.L48	@
 659              	.L75:
 660              	@ inc/dht/dht.c:142: 			hw->AMh = AMht >> 16;
 661 0132 4FEA1C43 		lsr	r3, ip, #16	@ tmp230, AMht,
 662              	@ inc/dht/dht.c:143: 			hw->AMt = AMht & 0xffff;
 663 0136 A0F80AC0 		strh	ip, [r0, #10]	@ movhi	@ AMht, hw_51(D)->AMt
 664              	@ inc/dht/dht.c:142: 			hw->AMh = AMht >> 16;
 665 013a 0381     		strh	r3, [r0, #8]	@ movhi	@ tmp230, hw_51(D)->AMh
 666              	@ inc/dht/dht.c:149: 		return 0;
 667 013c 0020     		movs	r0, #0	@ <retval>,
 668 013e ECE7     		b	.L48	@
 669              	.L77:
 670              		.align	2
 671              	.L76:
 672 0140 10E000E0 		.word	-536813552
 673 0144 00000000 		.word	delay_us
 674 0148 00000000 		.word	trg1
 675              		.size	AM23_read, .-AM23_read
 676              		.comm	PutChar,4,4
 677              		.comm	ptm,36,4
 678              		.ident	"GCC: (15:7-2018-q2-6) 7.3.1 20180622 (release) [ARM/embedded-7-branch revision 261907]"
ARM GAS  /tmp/cccjJSci.s 			page 13

