ARM GAS  /tmp/ccDfNsWv.s 			page 1


   1              		.cpu cortex-m3
   2              		.eabi_attribute 20, 1	@ Tag_ABI_FP_denormal
   3              		.eabi_attribute 21, 1	@ Tag_ABI_FP_exceptions
   4              		.eabi_attribute 23, 3	@ Tag_ABI_FP_number_model
   5              		.eabi_attribute 24, 1	@ Tag_ABI_align8_needed
   6              		.eabi_attribute 25, 1	@ Tag_ABI_align8_preserved
   7              		.eabi_attribute 26, 1	@ Tag_ABI_enum_size
   8              		.eabi_attribute 30, 2	@ Tag_ABI_optimization_goals
   9              		.eabi_attribute 34, 1	@ Tag_CPU_unaligned_access
  10              		.eabi_attribute 18, 4	@ Tag_ABI_PCS_wchar_t
  11              		.file	"main.c"
  12              	@ GNU C99 (15:7-2018-q2-6) version 7.3.1 20180622 (release) [ARM/embedded-7-branch revision 261907]
  13              	@	compiled by GNU C version 8.2.0, GMP version 6.1.2, MPFR version 4.0.2, MPC version 1.1.0, isl ve
  14              	@ GGC heuristics: --param ggc-min-expand=100 --param ggc-min-heapsize=131072
  15              	@ options passed:  -I . -imultilib thumb/v7-m -MD out/main.d -MF out/main.d
  16              	@ -MP -MQ out/main.o -D__USES_INITFINI__ -D RAMCODE -D STM32F10X_HD main.c
  17              	@ -mcpu=cortex-m3 -mthumb -auxbase-strip out/main.o -O2 -Wall
  18              	@ -Wstrict-prototypes -Wextra -Wno-uninitialized
  19              	@ -Wno-unused-but-set-variable -Wno-unused-parameter -Wno-unused-variable
  20              	@ -std=gnu99 -ffunction-sections -fdata-sections -fverbose-asm
  21              	@ options enabled:  -faggressive-loop-optimizations -falign-jumps
  22              	@ -falign-labels -falign-loops -fauto-inc-dec -fbranch-count-reg
  23              	@ -fcaller-saves -fchkp-check-incomplete-type -fchkp-check-read
  24              	@ -fchkp-check-write -fchkp-instrument-calls -fchkp-narrow-bounds
  25              	@ -fchkp-optimize -fchkp-store-bounds -fchkp-use-static-bounds
  26              	@ -fchkp-use-static-const-bounds -fchkp-use-wrappers -fcode-hoisting
  27              	@ -fcombine-stack-adjustments -fcommon -fcompare-elim -fcprop-registers
  28              	@ -fcrossjumping -fcse-follow-jumps -fdata-sections -fdefer-pop
  29              	@ -fdelete-null-pointer-checks -fdevirtualize -fdevirtualize-speculatively
  30              	@ -fdwarf2-cfi-asm -fearly-inlining -feliminate-unused-debug-types
  31              	@ -fexpensive-optimizations -fforward-propagate -ffp-int-builtin-inexact
  32              	@ -ffunction-cse -ffunction-sections -fgcse -fgcse-lm -fgnu-runtime
  33              	@ -fgnu-unique -fguess-branch-probability -fhoist-adjacent-loads -fident
  34              	@ -fif-conversion -fif-conversion2 -findirect-inlining -finline
  35              	@ -finline-atomics -finline-functions-called-once -finline-small-functions
  36              	@ -fipa-bit-cp -fipa-cp -fipa-icf -fipa-icf-functions -fipa-icf-variables
  37              	@ -fipa-profile -fipa-pure-const -fipa-ra -fipa-reference -fipa-sra
  38              	@ -fipa-vrp -fira-hoist-pressure -fira-share-save-slots
  39              	@ -fira-share-spill-slots -fisolate-erroneous-paths-dereference -fivopts
  40              	@ -fkeep-static-consts -fleading-underscore -flifetime-dse -flra-remat
  41              	@ -flto-odr-type-merging -fmath-errno -fmerge-constants
  42              	@ -fmerge-debug-strings -fmove-loop-invariants -fomit-frame-pointer
  43              	@ -foptimize-sibling-calls -foptimize-strlen -fpartial-inlining -fpeephole
  44              	@ -fpeephole2 -fplt -fprefetch-loop-arrays -freg-struct-return
  45              	@ -freorder-blocks -freorder-functions -frerun-cse-after-loop
  46              	@ -fsched-critical-path-heuristic -fsched-dep-count-heuristic
  47              	@ -fsched-group-heuristic -fsched-interblock -fsched-last-insn-heuristic
  48              	@ -fsched-pressure -fsched-rank-heuristic -fsched-spec
  49              	@ -fsched-spec-insn-heuristic -fsched-stalled-insns-dep -fschedule-insns
  50              	@ -fschedule-insns2 -fsection-anchors -fsemantic-interposition
  51              	@ -fshow-column -fshrink-wrap -fshrink-wrap-separate -fsigned-zeros
  52              	@ -fsplit-ivs-in-unroller -fsplit-wide-types -fssa-backprop -fssa-phiopt
  53              	@ -fstdarg-opt -fstore-merging -fstrict-aliasing -fstrict-overflow
  54              	@ -fstrict-volatile-bitfields -fsync-libcalls -fthread-jumps
  55              	@ -ftoplevel-reorder -ftrapping-math -ftree-bit-ccp -ftree-builtin-call-dce
  56              	@ -ftree-ccp -ftree-ch -ftree-coalesce-vars -ftree-copy-prop -ftree-cselim
  57              	@ -ftree-dce -ftree-dominator-opts -ftree-dse -ftree-forwprop -ftree-fre
ARM GAS  /tmp/ccDfNsWv.s 			page 2


  58              	@ -ftree-loop-if-convert -ftree-loop-im -ftree-loop-ivcanon
  59              	@ -ftree-loop-optimize -ftree-parallelize-loops= -ftree-phiprop -ftree-pre
  60              	@ -ftree-pta -ftree-reassoc -ftree-scev-cprop -ftree-sink -ftree-slsr
  61              	@ -ftree-sra -ftree-switch-conversion -ftree-tail-merge -ftree-ter
  62              	@ -ftree-vrp -funit-at-a-time -fverbose-asm -fzero-initialized-in-bss
  63              	@ -masm-syntax-unified -mfix-cortex-m3-ldrd -mlittle-endian
  64              	@ -mpic-data-is-text-relative -msched-prolog -mthumb -munaligned-access
  65              	@ -mvectorize-with-neon-quad
  66              	
  67              		.text
  68              		.section	.text.gmtime_r.isra.0.constprop.2,"ax",%progbits
  69              		.align	1
  70              		.p2align 2,,3
  71              		.syntax unified
  72              		.thumb
  73              		.thumb_func
  74              		.fpu softvfp
  75              		.type	gmtime_r.isra.0.constprop.2, %function
  76              	gmtime_r.isra.0.constprop.2:
  77              		@ args = 0, pretend = 0, frame = 0
  78              		@ frame_needed = 0, uses_anonymous_args = 0
  79 0000 2DE9F043 		push	{r4, r5, r6, r7, r8, r9, lr}	@
  80              	@ main.c:5601: 	tmbuf->tm_min = (dayclock % 3600) / 60;
  81 0004 4FF46164 		mov	r4, #3600	@ tmp221,
  82              	@ main.c:5597: 	dayclock = (u32) time % SECS_DAY;
  83 0008 524B     		ldr	r3, .L35	@ tmp191,
  84 000a 534A     		ldr	r2, .L35+4	@ tmp193,
  85 000c A3FB0013 		umull	r1, r3, r3, r0	@ tmp372, tmp190, tmp191, ISRA.271
  86 0010 190C     		lsrs	r1, r3, #16	@ dayclock, tmp190,
  87 0012 02FB1101 		mls	r1, r2, r1, r0	@ dayclock, tmp193, dayclock, ISRA.271
  88              	@ main.c:5601: 	tmbuf->tm_min = (dayclock % 3600) / 60;
  89 0016 514A     		ldr	r2, .L35+8	@ tmp219,
  90              	@ main.c:5598: 	dayno = (u32) time / SECS_DAY;
  91 0018 1B0C     		lsrs	r3, r3, #16	@ dayno, tmp190,
  92              	@ main.c:5601: 	tmbuf->tm_min = (dayclock % 3600) / 60;
  93 001a A2FB012E 		umull	r2, lr, r2, r1	@ tmp373, tmp218, tmp219, dayclock
  94              	@ main.c:5603: 	tmbuf->tm_wday = (dayno + 4) % 7; // Day 0 was a thursday
  95 001e 504A     		ldr	r2, .L35+12	@ tmp252,
  96 0020 1D1D     		adds	r5, r3, #4	@ tmp250, dayno,
  97              	@ main.c:5601: 	tmbuf->tm_min = (dayclock % 3600) / 60;
  98 0022 4FEADE2E 		lsr	lr, lr, #11	@ tmp217, tmp218,
  99              	@ main.c:5603: 	tmbuf->tm_wday = (dayno + 4) % 7; // Day 0 was a thursday
 100 0026 A2FB0502 		umull	r0, r2, r2, r5	@ tmp374, tmp251, tmp252, tmp250
 101              	@ main.c:5600: 	tmbuf->tm_sec = dayclock % 60;
 102 002a 4E4E     		ldr	r6, .L35+16	@ tmp198,
 103              	@ main.c:5601: 	tmbuf->tm_min = (dayclock % 3600) / 60;
 104 002c 04FB1E10 		mls	r0, r4, lr, r1	@ tmp222, tmp221, tmp217, dayclock
 105              	@ main.c:5600: 	tmbuf->tm_sec = dayclock % 60;
 106 0030 A6FB0174 		umull	r7, r4, r6, r1	@ tmp375, tmp197, tmp198, dayclock
 107              	@ main.c:5603: 	tmbuf->tm_wday = (dayno + 4) % 7; // Day 0 was a thursday
 108 0034 AF1A     		subs	r7, r5, r2	@ tmp253, tmp250, tmp251
 109              	@ main.c:5601: 	tmbuf->tm_min = (dayclock % 3600) / 60;
 110 0036 A6FB0060 		umull	r6, r0, r6, r0	@ tmp376, tmp232, tmp198, tmp222
 111              	@ main.c:5603: 	tmbuf->tm_wday = (dayno + 4) % 7; // Day 0 was a thursday
 112 003a 02EB5702 		add	r2, r2, r7, lsr #1	@ tmp255, tmp251, tmp253,
 113 003e 9208     		lsrs	r2, r2, #2	@ tmp256, tmp255,
 114              	@ main.c:5600: 	tmbuf->tm_sec = dayclock % 60;
ARM GAS  /tmp/ccDfNsWv.s 			page 3


 115 0040 6409     		lsrs	r4, r4, #5	@ tmp199, tmp197,
 116 0042 DFF82CC1 		ldr	ip, .L35+28	@ tmp364,
 117              	@ main.c:5603: 	tmbuf->tm_wday = (dayno + 4) % 7; // Day 0 was a thursday
 118 0046 C2EBC202 		rsb	r2, r2, r2, lsl #3	@ tmp259, tmp256, tmp256,
 119              	@ main.c:5600: 	tmbuf->tm_sec = dayclock % 60;
 120 004a C4EB0414 		rsb	r4, r4, r4, lsl #4	@ tmp202, tmp199, tmp199,
 121              	@ main.c:5603: 	tmbuf->tm_wday = (dayno + 4) % 7; // Day 0 was a thursday
 122 004e AA1A     		subs	r2, r5, r2	@ tmp260, tmp250, tmp259
 123              	@ main.c:5601: 	tmbuf->tm_min = (dayclock % 3600) / 60;
 124 0050 4009     		lsrs	r0, r0, #5	@ tmp234, tmp232,
 125              	@ main.c:5600: 	tmbuf->tm_sec = dayclock % 60;
 126 0052 A1EB8401 		sub	r1, r1, r4, lsl #2	@ tmp204, dayclock, tmp202,
 127              	@ main.c:5603: 	tmbuf->tm_wday = (dayno + 4) % 7; // Day 0 was a thursday
 128 0056 CCF81820 		str	r2, [ip, #24]	@ tmp260, ptm.tm_wday
 129              	@ main.c:5601: 	tmbuf->tm_min = (dayclock % 3600) / 60;
 130 005a CCE90010 		strd	r1, r0, [ip]	@ tmp204, tmp234, tmp364
 131              	@ main.c:5595: 	int year = EPOCH_YR;
 132 005e 40F2B272 		movw	r2, #1970	@ year,
 133              	@ main.c:5606: 		dayno -= YEARSIZE(year);
 134 0062 40F26D18 		movw	r8, #365	@ iftmp.249_20,
 135              	@ main.c:5604: 	while (dayno >= (u32) YEARSIZE(year))
 136 0066 404D     		ldr	r5, .L35+20	@ tmp368,
 137 0068 6420     		movs	r0, #100	@ tmp369,
 138 006a 4FF4C877 		mov	r7, #400	@ tmp371,
 139 006e 10E0     		b	.L2	@
 140              	.L31:
 141 0070 A5FB0241 		umull	r4, r1, r5, r2	@ tmp377, tmp285, tmp368, year
 142 0074 4C09     		lsrs	r4, r1, #5	@ _24, tmp285,
 143 0076 00FB1424 		mls	r4, r0, r4, r2	@ _24, tmp369, _24, year
 144 007a 9CB9     		cbnz	r4, .L5	@ _24,
 145 007c C909     		lsrs	r1, r1, #7	@ tmp365, tmp285,
 146 007e 07FB1121 		mls	r1, r7, r1, r2	@ _125, tmp371, tmp365, year
 147 0082 D9B9     		cbnz	r1, .L29	@ _125,
 148 0084 B3F5B77F 		cmp	r3, #366	@ dayno,
 149 0088 61D3     		bcc	.L30	@,
 150              	.L23:
 151              	@ main.c:5606: 		dayno -= YEARSIZE(year);
 152 008a 4FF4B771 		mov	r1, #366	@ iftmp.249_20,
 153              	.L3:
 154 008e 5B1A     		subs	r3, r3, r1	@ dayno, dayno, iftmp.249_20
 155              	@ main.c:5607: 		year++;
 156 0090 0132     		adds	r2, r2, #1	@ year, year,
 157              	.L2:
 158              	@ main.c:5604: 	while (dayno >= (u32) YEARSIZE(year))
 159 0092 12F00306 		ands	r6, r2, #3	@ _15, year,
 160 0096 EBD0     		beq	.L31	@,
 161 0098 B3F5B67F 		cmp	r3, #364	@ dayno,
 162 009c 13D9     		bls	.L32	@,
 163              	@ main.c:5606: 		dayno -= YEARSIZE(year);
 164 009e 40F26D11 		movw	r1, #365	@ iftmp.249_20,
 165 00a2 F4E7     		b	.L3	@
 166              	.L5:
 167              	@ main.c:5604: 	while (dayno >= (u32) YEARSIZE(year))
 168 00a4 B3F5B77F 		cmp	r3, #366	@ dayno,
 169 00a8 EFD2     		bcs	.L23	@,
 170              	.L17:
 171 00aa 4FF4C870 		mov	r0, #400	@ tmp355,
ARM GAS  /tmp/ccDfNsWv.s 			page 4


 172 00ae 2E49     		ldr	r1, .L35+20	@ tmp353,
 173 00b0 A1FB0251 		umull	r5, r1, r1, r2	@ tmp379, tmp352, tmp353, year
 174 00b4 C909     		lsrs	r1, r1, #7	@ _125, tmp352,
 175 00b6 00FB1121 		mls	r1, r0, r1, r2	@ _125, tmp355, _125, year
 176 00ba 10E0     		b	.L14	@
 177              	.L29:
 178 00bc B3F5B67F 		cmp	r3, #364	@ dayno,
 179 00c0 F3D9     		bls	.L17	@,
 180              	@ main.c:5606: 		dayno -= YEARSIZE(year);
 181 00c2 4146     		mov	r1, r8	@ iftmp.249_20, iftmp.249_20
 182 00c4 E3E7     		b	.L3	@
 183              	.L32:
 184 00c6 6425     		movs	r5, #100	@ tmp335,
 185 00c8 4FF4C870 		mov	r0, #400	@ tmp345,
 186 00cc 2649     		ldr	r1, .L35+20	@ tmp333,
 187 00ce A1FB0241 		umull	r4, r1, r1, r2	@ tmp378, tmp332, tmp333, year
 188 00d2 4C09     		lsrs	r4, r1, #5	@ _24, tmp332,
 189 00d4 C909     		lsrs	r1, r1, #7	@ _125, tmp332,
 190 00d6 05FB1424 		mls	r4, r5, r4, r2	@ _24, tmp335, _24, year
 191 00da 00FB1121 		mls	r1, r0, r1, r2	@ _125, tmp345, _125, year
 192              	.L14:
 193              	@ main.c:5610: 	tmbuf->tm_yday = dayno;
 194 00de CCF81C30 		str	r3, [ip, #28]	@ dayno, ptm.tm_yday
 195 00e2 2248     		ldr	r0, .L35+24	@ ivtmp.377,
 196 00e4 002C     		cmp	r4, #0	@ _24,
 197 00e6 14BF     		ite	ne	@
 198 00e8 4FF03008 		movne	r8, #48	@, tmp315,
 199 00ec 4FF00008 		moveq	r8, #0	@, tmp315,
 200 00f0 0029     		cmp	r1, #0	@ _125,
 201 00f2 0CBF     		ite	eq	@
 202 00f4 4FF03009 		moveq	r9, #48	@, tmp321,
 203 00f8 4FF00009 		movne	r9, #0	@, tmp321,
 204              	@ main.c:5614: 		dayno -= _ytab[LEAPYEAR(year)][tmbuf->tm_mon];
 205 00fc 0025     		movs	r5, #0	@ ivtmp.375,
 206              	@ main.c:5612: 	while (dayno >= (u32) _ytab[LEAPYEAR(year)][tmbuf->tm_mon])
 207 00fe 5EB9     		cbnz	r6, .L10	@ _15,
 208              	.L34:
 209 0100 D4B9     		cbnz	r4, .L11	@ _24,
 210 0102 F9B9     		cbnz	r1, .L33	@ _125,
 211 0104 076B     		ldr	r7, [r0, #48]	@ MEM[base: _42, offset: 48B], MEM[base: _42, offset: 48B]
 212 0106 BB42     		cmp	r3, r7	@ dayno, MEM[base: _42, offset: 48B]
 213 0108 09D3     		bcc	.L16	@,
 214              	.L15:
 215 010a 50F80970 		ldr	r7, [r0, r9]	@ _73, MEM[base: _120, index: _18, offset: 0B]
 216              	.L9:
 217              	@ main.c:5614: 		dayno -= _ytab[LEAPYEAR(year)][tmbuf->tm_mon];
 218 010e DB1B     		subs	r3, r3, r7	@ dayno, dayno, _73
 219 0110 0135     		adds	r5, r5, #1	@ ivtmp.375, ivtmp.375,
 220 0112 0430     		adds	r0, r0, #4	@ ivtmp.377, ivtmp.377,
 221              	@ main.c:5612: 	while (dayno >= (u32) _ytab[LEAPYEAR(year)][tmbuf->tm_mon])
 222 0114 002E     		cmp	r6, #0	@ _15
 223 0116 F3D0     		beq	.L34	@
 224              	.L10:
 225 0118 0768     		ldr	r7, [r0]	@ _73, MEM[base: _121, offset: 0B]
 226 011a BB42     		cmp	r3, r7	@ dayno, _73
 227 011c F7D2     		bcs	.L9	@,
 228              	.L16:
ARM GAS  /tmp/ccDfNsWv.s 			page 5


 229              	@ main.c:5618: 	tmbuf->tm_isdst = 1;
 230 011e 0121     		movs	r1, #1	@ tmp325,
 231              	@ main.c:5617: 	tmbuf->tm_mday = dayno + 1;
 232 0120 0B44     		add	r3, r3, r1	@ tmp323,
 233              	@ main.c:5619: 	tmbuf->tm_hour += TIMEZONE - tmbuf->tm_isdst;
 234 0122 0EEB0100 		add	r0, lr, r1	@ tmp327, tmp217,
 235              	@ main.c:5621: 	tmbuf->tm_mon  += 1;
 236 0126 0D44     		add	r5, r5, r1	@ tmp330,
 237              	@ main.c:5619: 	tmbuf->tm_hour += TIMEZONE - tmbuf->tm_isdst;
 238 0128 CCE90203 		strd	r0, r3, [ip, #8]	@ tmp327, tmp323, tmp364,
 239              	@ main.c:5620: 	tmbuf->tm_year += YEAR0;
 240 012c CCE90452 		strd	r5, r2, [ip, #16]	@ tmp330, year, tmp364,
 241              	@ main.c:5618: 	tmbuf->tm_isdst = 1;
 242 0130 CCF82010 		str	r1, [ip, #32]	@ tmp325, ptm.tm_isdst
 243              	@ main.c:5623: }
 244 0134 BDE8F083 		pop	{r4, r5, r6, r7, r8, r9, pc}	@
 245              	.L11:
 246              	@ main.c:5612: 	while (dayno >= (u32) _ytab[LEAPYEAR(year)][tmbuf->tm_mon])
 247 0138 50F80870 		ldr	r7, [r0, r8]	@ MEM[base: _88, index: _74, offset: 0B], MEM[base: _88, index: _74, offset: 0B]
 248 013c BB42     		cmp	r3, r7	@ dayno, MEM[base: _88, index: _74, offset: 0B]
 249 013e EED3     		bcc	.L16	@,
 250 0140 076B     		ldr	r7, [r0, #48]	@ _73, MEM[base: _88, offset: 48B]
 251 0142 E4E7     		b	.L9	@
 252              	.L33:
 253 0144 50F80870 		ldr	r7, [r0, r8]	@ MEM[base: _32, index: _74, offset: 0B], MEM[base: _32, index: _74, offset: 0B]
 254 0148 BB42     		cmp	r3, r7	@ dayno, MEM[base: _32, index: _74, offset: 0B]
 255 014a DED2     		bcs	.L15	@,
 256 014c E7E7     		b	.L16	@
 257              	.L30:
 258              	@ main.c:5604: 	while (dayno >= (u32) YEARSIZE(year))
 259 014e 0C46     		mov	r4, r1	@ _24, _125
 260 0150 C5E7     		b	.L14	@
 261              	.L36:
 262 0152 00BF     		.align	2
 263              	.L35:
 264 0154 07452EC2 		.word	-1037155065
 265 0158 80510100 		.word	86400
 266 015c C5B3A291 		.word	-1851608123
 267 0160 25499224 		.word	613566757
 268 0164 89888888 		.word	-2004318071
 269 0168 1F85EB51 		.word	1374389535
 270 016c 00000000 		.word	.LANCHOR0
 271 0170 00000000 		.word	ptm
 272              		.size	gmtime_r.isra.0.constprop.2, .-gmtime_r.isra.0.constprop.2
 273              		.section	.text.head,"ax",%progbits
 274              		.align	1
 275              		.p2align 2,,3
 276              		.global	head
 277              		.syntax unified
 278              		.thumb
 279              		.thumb_func
 280              		.fpu softvfp
 281              		.type	head, %function
 282              	head:
 283              		@ args = 0, pretend = 0, frame = 0
 284              		@ frame_needed = 0, uses_anonymous_args = 0
 285 0000 08B5     		push	{r3, lr}	@
ARM GAS  /tmp/ccDfNsWv.s 			page 6


 286              	@ main.c:217: 		tr_pen_color( TGREEN );
 287 0002 0220     		movs	r0, #2	@,
 288 0004 FFF7FEFF 		bl	tr_pen_color	@
 289              	@ main.c:219: 		UaPutK("\f\r\n Mini STM32F103C8T6 RAM   "); // Boot from RAM 	 = B0+ B1+
 290 0008 0648     		ldr	r0, .L39	@,
 291 000a FFF7FEFF 		bl	UaPutK	@
 292              	@ main.c:223: 		uint2uart(F_CPU/1e6);	UaPutK(" MHz");
 293 000e 4820     		movs	r0, #72	@,
 294 0010 FFF7FEFF 		bl	uint2uart	@
 295 0014 0448     		ldr	r0, .L39+4	@,
 296 0016 FFF7FEFF 		bl	UaPutK	@
 297              	@ main.c:225: 	}
 298 001a BDE80840 		pop	{r3, lr}	@
 299              	@ main.c:224: 		tr_pen_color( TYELLOW );
 300 001e 0320     		movs	r0, #3	@,
 301 0020 FFF7FEBF 		b	tr_pen_color	@
 302              	.L40:
 303              		.align	2
 304              	.L39:
 305 0024 00000000 		.word	.LC8
 306 0028 20000000 		.word	.LC9
 307              		.size	head, .-head
 308              		.section	.text.minios,"ax",%progbits
 309              		.align	1
 310              		.p2align 2,,3
 311              		.global	minios
 312              		.syntax unified
 313              		.thumb
 314              		.thumb_func
 315              		.fpu softvfp
 316              		.type	minios, %function
 317              	minios:
 318              		@ args = 0, pretend = 0, frame = 32
 319              		@ frame_needed = 0, uses_anonymous_args = 0
 320              	@ main.c:5356: 	USART1->CR1 |= (USART_CR1_UE |USART_CR1_TE | USART_CR1_RE	|USART_CR1_RXNEIE);
 321 0000 42F22C00 		movw	r0, #8236	@ tmp191,
 322              	@ main.c:246: void minios(void){
 323 0004 2DE9F04F 		push	{r4, r5, r6, r7, r8, r9, r10, fp, lr}	@
 324              	@ ./inc/core_cm3.h:1504:   NVIC->ISER[((uint32_t)(IRQn) >> 5)] = (1 << ((uint32_t)(IRQn) & 0x1F)); 
 325 0008 4FF0200C 		mov	ip, #32	@ tmp199,
 326              	@ main.c:5357: 	USART1->BRR = (F_CPU+UART1_SPEED/2)/UART1_SPEED;
 327 000c 40F2712E 		movw	lr, #625	@ tmp197,
 328              	@ ./inc/core_cm3.h:1504:   NVIC->ISER[((uint32_t)(IRQn) >> 5)] = (1 << ((uint32_t)(IRQn) & 0x1F)); 
 329 0010 4022     		movs	r2, #64	@ tmp217,
 330              	@ main.c:5364: 	USART2->BRR = ((F_CPU+UART2_SPEED/2)/UART2_SPEED)/2;
 331 0012 4FF49C71 		mov	r1, #312	@ tmp215,
 332              	@ main.c:253: 		GPIOB->CRL = (GPIOB->CRL & 0x0fffffff) | 0x10000000;	// PB7
 333 0016 984C     		ldr	r4, .L53	@ tmp179,
 334              	@ main.c:5354: 	RCC->APB2ENR |= RCC_APB2ENR_USART1EN;
 335 0018 984E     		ldr	r6, .L53+4	@ tmp182,
 336              	@ main.c:253: 		GPIOB->CRL = (GPIOB->CRL & 0x0fffffff) | 0x10000000;	// PB7
 337 001a 2368     		ldr	r3, [r4]	@ _1, MEM[(struct GPIO_TypeDef *)1073810432B].CRL
 338              	@ main.c:5355: 	GPIOA->CRH = (GPIOA->CRH & 0xfffff00f) | 0x00000490; // PA9=TX, PA10=RX
 339 001c 984D     		ldr	r5, .L53+8	@ tmp184,
 340              	@ main.c:253: 		GPIOB->CRL = (GPIOB->CRL & 0x0fffffff) | 0x10000000;	// PB7
 341 001e 23F07043 		bic	r3, r3, #-268435456	@ tmp180, _1,
 342 0022 43F08053 		orr	r3, r3, #268435456	@ _3, tmp180,
ARM GAS  /tmp/ccDfNsWv.s 			page 7


 343 0026 2360     		str	r3, [r4]	@ _3, MEM[(struct GPIO_TypeDef *)1073810432B].CRL
 344              	@ main.c:5354: 	RCC->APB2ENR |= RCC_APB2ENR_USART1EN;
 345 0028 B369     		ldr	r3, [r6, #24]	@ _129, MEM[(struct RCC_TypeDef *)1073876992B].APB2ENR
 346              	@ main.c:5356: 	USART1->CR1 |= (USART_CR1_UE |USART_CR1_TE | USART_CR1_RE	|USART_CR1_RXNEIE);
 347 002a 04F53054 		add	r4, r4, #11264	@ tmp187, tmp187,
 348              	@ main.c:5354: 	RCC->APB2ENR |= RCC_APB2ENR_USART1EN;
 349 002e 43F48043 		orr	r3, r3, #16384	@ _130, _129,
 350 0032 B361     		str	r3, [r6, #24]	@ _130, MEM[(struct RCC_TypeDef *)1073876992B].APB2ENR
 351              	@ main.c:5355: 	GPIOA->CRH = (GPIOA->CRH & 0xfffff00f) | 0x00000490; // PA9=TX, PA10=RX
 352 0034 6B68     		ldr	r3, [r5, #4]	@ _131, MEM[(struct GPIO_TypeDef *)1073809408B].CRH
 353              	@ ./inc/core_cm3.h:1504:   NVIC->ISER[((uint32_t)(IRQn) >> 5)] = (1 << ((uint32_t)(IRQn) & 0x1F)); 
 354 0036 934F     		ldr	r7, .L53+12	@ tmp198,
 355              	@ main.c:5355: 	GPIOA->CRH = (GPIOA->CRH & 0xfffff00f) | 0x00000490; // PA9=TX, PA10=RX
 356 0038 23F47F63 		bic	r3, r3, #4080	@ tmp185, _131,
 357 003c 43F49263 		orr	r3, r3, #1168	@ _133, tmp185,
 358 0040 6B60     		str	r3, [r5, #4]	@ _133, MEM[(struct GPIO_TypeDef *)1073809408B].CRH
 359              	@ main.c:5356: 	USART1->CR1 |= (USART_CR1_UE |USART_CR1_TE | USART_CR1_RE	|USART_CR1_RXNEIE);
 360 0042 A389     		ldrh	r3, [r4, #12]	@, MEM[(struct USART_TypeDef *)1073821696B].CR1
 361              	@ main.c:246: void minios(void){
 362 0044 89B0     		sub	sp, sp, #36	@,,
 363              	@ main.c:5356: 	USART1->CR1 |= (USART_CR1_UE |USART_CR1_TE | USART_CR1_RE	|USART_CR1_RXNEIE);
 364 0046 0343     		orrs	r3, r3, r0	@, _135, MEM[(struct USART_TypeDef *)1073821696B].CR1, tmp191
 365 0048 A381     		strh	r3, [r4, #12]	@ movhi	@ _135, MEM[(struct USART_TypeDef *)1073821696B].CR1
 366              	@ main.c:5357: 	USART1->BRR = (F_CPU+UART1_SPEED/2)/UART1_SPEED;
 367 004a A4F808E0 		strh	lr, [r4, #8]	@ movhi	@ tmp197, MEM[(struct USART_TypeDef *)1073821696B].BRR
 368              	@ ./inc/core_cm3.h:1504:   NVIC->ISER[((uint32_t)(IRQn) >> 5)] = (1 << ((uint32_t)(IRQn) & 0x1F)); 
 369 004e C7F804C0 		str	ip, [r7, #4]	@ tmp199, MEM[(struct NVIC_Type *)3758153984B].ISER
 370              	@ main.c:5361: 	RCC->APB1ENR |= RCC_APB1ENR_USART2EN;
 371 0052 F369     		ldr	r3, [r6, #28]	@ _122, MEM[(struct RCC_TypeDef *)1073876992B].APB1ENR
 372              	@ main.c:5363: 	USART2->CR1 |= (USART_CR1_UE |USART_CR1_TE | USART_CR1_RE	|USART_CR1_RXNEIE);
 373 0054 DFF878C2 		ldr	ip, .L53+88	@ tmp205,
 374              	@ main.c:5361: 	RCC->APB1ENR |= RCC_APB1ENR_USART2EN;
 375 0058 43F40033 		orr	r3, r3, #131072	@ _123, _122,
 376 005c F361     		str	r3, [r6, #28]	@ _123, MEM[(struct RCC_TypeDef *)1073876992B].APB1ENR
 377              	@ main.c:5362: 	GPIOA->CRL = (GPIOA->CRL & 0xffff00ff) | 0x00004900; // PA2=TX, PA3=RX 
 378 005e 2B68     		ldr	r3, [r5]	@ _124, MEM[(struct GPIO_TypeDef *)1073809408B].CRL
 379              	@ main.c:257: 			PutChar = UART1_putc;	tr_pen_color ( TYELLOW );
 380 0060 894E     		ldr	r6, .L53+16	@ tmp314,
 381              	@ main.c:5362: 	GPIOA->CRL = (GPIOA->CRL & 0xffff00ff) | 0x00004900; // PA2=TX, PA3=RX 
 382 0062 23F47F43 		bic	r3, r3, #65280	@ tmp203, _124,
 383 0066 43F49243 		orr	r3, r3, #18688	@ _126, tmp203,
 384 006a 2B60     		str	r3, [r5]	@ _126, MEM[(struct GPIO_TypeDef *)1073809408B].CRL
 385              	@ main.c:5363: 	USART2->CR1 |= (USART_CR1_UE |USART_CR1_TE | USART_CR1_RE	|USART_CR1_RXNEIE);
 386 006c BCF80C30 		ldrh	r3, [ip, #12]	@, MEM[(struct USART_TypeDef *)1073759232B].CR1
 387              	@ main.c:258: 			UaPutS("\f UART1 "); UaPutS (uint2str( (F_CPU/1)/(1*USART1->BRR-1),buf));	
 388 0070 864D     		ldr	r5, .L53+20	@ tmp228,
 389              	@ main.c:5363: 	USART2->CR1 |= (USART_CR1_UE |USART_CR1_TE | USART_CR1_RE	|USART_CR1_RXNEIE);
 390 0072 1843     		orrs	r0, r0, r3	@, _128, tmp191, MEM[(struct USART_TypeDef *)1073759232B].CR1
 391              	@ main.c:257: 			PutChar = UART1_putc;	tr_pen_color ( TYELLOW );
 392 0074 864B     		ldr	r3, .L53+24	@ tmp315,
 393              	@ main.c:5363: 	USART2->CR1 |= (USART_CR1_UE |USART_CR1_TE | USART_CR1_RE	|USART_CR1_RXNEIE);
 394 0076 ACF80C00 		strh	r0, [ip, #12]	@ movhi	@ _128, MEM[(struct USART_TypeDef *)1073759232B].CR1
 395              	@ main.c:5364: 	USART2->BRR = ((F_CPU+UART2_SPEED/2)/UART2_SPEED)/2;
 396 007a ACF80810 		strh	r1, [ip, #8]	@ movhi	@ tmp215, MEM[(struct USART_TypeDef *)1073759232B].BRR
 397              	@ main.c:257: 			PutChar = UART1_putc;	tr_pen_color ( TYELLOW );
 398 007e 0320     		movs	r0, #3	@,
 399              	@ ./inc/core_cm3.h:1504:   NVIC->ISER[((uint32_t)(IRQn) >> 5)] = (1 << ((uint32_t)(IRQn) & 0x1F)); 
ARM GAS  /tmp/ccDfNsWv.s 			page 8


 400 0080 7A60     		str	r2, [r7, #4]	@ tmp217, MEM[(struct NVIC_Type *)3758153984B].ISER
 401              	@ main.c:257: 			PutChar = UART1_putc;	tr_pen_color ( TYELLOW );
 402 0082 3360     		str	r3, [r6]	@ tmp315, PutChar
 403 0084 FFF7FEFF 		bl	tr_pen_color	@
 404              	@ main.c:258: 			UaPutS("\f UART1 "); UaPutS (uint2str( (F_CPU/1)/(1*USART1->BRR-1),buf));	
 405 0088 8248     		ldr	r0, .L53+28	@,
 406 008a FFF7FEFF 		bl	UaPutS	@
 407 008e 2089     		ldrh	r0, [r4, #8]	@, MEM[(struct USART_TypeDef *)1073821696B].BRR
 408 0090 05A9     		add	r1, sp, #20	@ tmp316,,
 409 0092 0138     		subs	r0, r0, #1	@ tmp225, MEM[(struct USART_TypeDef *)1073821696B].BRR,
 410 0094 B5FBF0F0 		udiv	r0, r5, r0	@, tmp228, tmp225
 411 0098 FFF7FEFF 		bl	uint2str	@
 412 009c FFF7FEFF 		bl	UaPutS	@
 413              	@ main.c:259: 			UaPutS (" b/s \r\n");
 414 00a0 7D48     		ldr	r0, .L53+32	@,
 415 00a2 FFF7FEFF 		bl	UaPutS	@
 416              	@ main.c:261: 			PutChar = UART2_putc;	tr_pen_color ( TYELLOW );
 417 00a6 7D4B     		ldr	r3, .L53+36	@ tmp318,
 418 00a8 0320     		movs	r0, #3	@,
 419 00aa 3360     		str	r3, [r6]	@ tmp318, PutChar
 420 00ac FFF7FEFF 		bl	tr_pen_color	@
 421              	@ main.c:262: 			UaPutS("\f UART2 "); UaPutS (uint2str( (F_CPU/1)/(1*USART1->BRR-1),buf));	
 422 00b0 7B48     		ldr	r0, .L53+40	@,
 423 00b2 FFF7FEFF 		bl	UaPutS	@
 424 00b6 2089     		ldrh	r0, [r4, #8]	@, MEM[(struct USART_TypeDef *)1073821696B].BRR
 425 00b8 05A9     		add	r1, sp, #20	@ tmp319,,
 426 00ba 0138     		subs	r0, r0, #1	@ tmp237, MEM[(struct USART_TypeDef *)1073821696B].BRR,
 427 00bc B5FBF0F0 		udiv	r0, r5, r0	@, tmp228, tmp237
 428 00c0 FFF7FEFF 		bl	uint2str	@
 429 00c4 FFF7FEFF 		bl	UaPutS	@
 430              	@ main.c:263: 			UaPutS(" b/s \r\n");
 431 00c8 7348     		ldr	r0, .L53+32	@,
 432 00ca FFF7FEFF 		bl	UaPutS	@
 433              	@ main.c:271: 			i2weg[0]=0;     // Register
 434 00ce 4FF4F854 		mov	r4, #7936	@ tmp243,
 435              	@ main.c:270: 			i2c1r_init();
 436 00d2 FFF7FEFF 		bl	i2c1r_init	@
 437              	@ main.c:272: 			i2weg[1]=0x1f;  // MSB Data
 438 00d6 7723     		movs	r3, #119	@ tmp244,
 439              	@ main.c:274: 			i2c1_write(INA219_ADDR,i2weg,3);
 440 00d8 04A9     		add	r1, sp, #16	@ tmp320,,
 441 00da 0322     		movs	r2, #3	@,
 442 00dc 8020     		movs	r0, #128	@,
 443              	@ main.c:271: 			i2weg[0]=0;     // Register
 444 00de ADF81040 		strh	r4, [sp, #16]	@ movhi	@ tmp243, MEM[(u08[3] *)&i2weg]
 445              	@ main.c:272: 			i2weg[1]=0x1f;  // MSB Data
 446 00e2 8DF81230 		strb	r3, [sp, #18]	@ tmp244, MEM[(u08[3] *)&i2weg + 2B]
 447              	@ main.c:276: 			i2weg[0]=5;    	// Register
 448 00e6 40F20514 		movw	r4, #261	@ tmp248,
 449              	@ main.c:274: 			i2c1_write(INA219_ADDR,i2weg,3);
 450 00ea FFF7FEFF 		bl	i2c1_write	@
 451              	@ main.c:249: 		u16 vr1,vr2,cnt,cnt2=0,vbus;
 452 00ee 0025     		movs	r5, #0	@ cnt2,
 453              	@ main.c:277: 			i2weg[1]=0x1; 	// MSB Data
 454 00f0 9523     		movs	r3, #149	@ tmp249,
 455              	@ main.c:279: 			i2c1_write(INA219_ADDR,i2weg,3);
 456 00f2 04A9     		add	r1, sp, #16	@ tmp321,,
ARM GAS  /tmp/ccDfNsWv.s 			page 9


 457 00f4 0322     		movs	r2, #3	@,
 458 00f6 8020     		movs	r0, #128	@,
 459              	@ main.c:276: 			i2weg[0]=5;    	// Register
 460 00f8 ADF81040 		strh	r4, [sp, #16]	@ movhi	@ tmp248, MEM[(u08[3] *)&i2weg]
 461              	@ main.c:277: 			i2weg[1]=0x1; 	// MSB Data
 462 00fc 8DF81230 		strb	r3, [sp, #18]	@ tmp249, MEM[(u08[3] *)&i2weg + 2B]
 463              	@ main.c:279: 			i2c1_write(INA219_ADDR,i2weg,3);
 464 0100 FFF7FEFF 		bl	i2c1_write	@
 465              	@ main.c:281: 			i2c1_read (INA219_ADDR,0,i2reg,2);
 466 0104 03AA     		add	r2, sp, #12	@ tmp322,,
 467 0106 0223     		movs	r3, #2	@,
 468 0108 2946     		mov	r1, r5	@, cnt2
 469 010a 8020     		movs	r0, #128	@,
 470 010c FFF7FEFF 		bl	i2c1_read	@
 471              	@ main.c:282: 			tr_locate( 1,3);
 472 0110 0321     		movs	r1, #3	@,
 473 0112 0120     		movs	r0, #1	@,
 474 0114 FFF7FEFF 		bl	tr_locate	@
 475              	@ main.c:283: 			UaPutS("Config="); unt2uart(i2reg[0] + (i2reg[0]<<8) ,5); 
 476 0118 6248     		ldr	r0, .L53+44	@,
 477 011a FFF7FEFF 		bl	UaPutS	@
 478 011e 9DF80C00 		ldrb	r0, [sp, #12]	@ zero_extendqisi2	@ _17, i2reg
 479 0122 0521     		movs	r1, #5	@,
 480 0124 00EB0020 		add	r0, r0, r0, lsl #8	@, _17, _17,
 481 0128 FFF7FEFF 		bl	unt2uart	@
 482              	@ main.c:284: 			tr_locate( 1,2);
 483 012c 0221     		movs	r1, #2	@,
 484 012e 0120     		movs	r0, #1	@,
 485              	@ main.c:264: 			cnt=0;
 486 0130 2C46     		mov	r4, r5	@ cnt, cnt2
 487              	@ main.c:284: 			tr_locate( 1,2);
 488 0132 FFF7FEFF 		bl	tr_locate	@
 489 0136 5C4F     		ldr	r7, .L53+48	@ tmp306,
 490 0138 DFF898A1 		ldr	r10, .L53+92	@ tmp307,
 491              	@ main.c:288: 			if(STCLK_MS*500 < (trg0 - SysTick->VAL)){
 492 013c 5B4E     		ldr	r6, .L53+52	@ tmp257,
 493 013e DFF89891 		ldr	r9, .L53+96	@ tmp259,
 494              	@ main.c:312: 			if(PB11_i==1) {
 495 0142 DFF89881 		ldr	r8, .L53+100	@ tmp286,
 496              	@ main.c:313: 				LED ^= 1;	
 497 0146 DFF898B1 		ldr	fp, .L53+104	@ tmp310,
 498              	.L42:
 499              	@ main.c:288: 			if(STCLK_MS*500 < (trg0 - SysTick->VAL)){
 500 014a 3B68     		ldr	r3, [r7]	@ trg0.0_23, trg0
 501 014c B268     		ldr	r2, [r6, #8]	@ _24, MEM[(struct SysTick_Type *)3758153744B].VAL
 502 014e 9B1A     		subs	r3, r3, r2	@ tmp258, trg0.0_23, _24
 503 0150 4B45     		cmp	r3, r9	@ tmp258, tmp259
 504 0152 25D8     		bhi	.L52	@,
 505              	.L44:
 506              	@ main.c:312: 			if(PB11_i==1) {
 507 0154 D8F80030 		ldr	r3, [r8]	@ _47, MEM[(volatile long unsigned int *)1109492012B]
 508 0158 012B     		cmp	r3, #1	@ _47,
 509 015a 07D1     		bne	.L45	@,
 510              	@ main.c:313: 				LED ^= 1;	
 511 015c DBF80030 		ldr	r3, [fp]	@ _48, MEM[(volatile long unsigned int *)1109524916B]
 512              	@ main.c:314: 				cnt2++;
 513 0160 0135     		adds	r5, r5, #1	@ tmp289, cnt2,
ARM GAS  /tmp/ccDfNsWv.s 			page 10


 514              	@ main.c:313: 				LED ^= 1;	
 515 0162 83F00103 		eor	r3, r3, #1	@ _49, _48,
 516              	@ main.c:314: 				cnt2++;
 517 0166 ADB2     		uxth	r5, r5	@ cnt2, tmp289
 518              	@ main.c:313: 				LED ^= 1;	
 519 0168 CBF80030 		str	r3, [fp]	@ _49, MEM[(volatile long unsigned int *)1109524916B]
 520              	.L45:
 521              	@ main.c:317: 			if(p_Fifo1->rct){
 522 016c DAF80030 		ldr	r3, [r10]	@ p_Fifo1.3_50, p_Fifo1
 523 0170 9B88     		ldrh	r3, [r3, #4]	@, p_Fifo1.3_50->rct
 524 0172 9BB2     		uxth	r3, r3	@ _51, p_Fifo1.3_50->rct
 525 0174 002B     		cmp	r3, #0	@ _51
 526 0176 E8D0     		beq	.L42	@
 527              	@ main.c:318: 				UART_getChar((char*)&swh);
 528 0178 0DF10B00 		add	r0, sp, #11	@ tmp329,,
 529 017c FFF7FEFF 		bl	UART_getChar	@
 530              	@ main.c:321: 				switch (swh){
 531 0180 9DF80B30 		ldrb	r3, [sp, #11]	@ zero_extendqisi2	@ swh, swh
 532 0184 612B     		cmp	r3, #97	@ swh,
 533 0186 60D0     		beq	.L46	@,
 534 0188 622B     		cmp	r3, #98	@ swh,
 535 018a DED1     		bne	.L42	@,
 536              	@ main.c:334: 					PB7_o ^= 1;
 537 018c 484A     		ldr	r2, .L53+56	@ tmp330,
 538 018e 1368     		ldr	r3, [r2]	@ _54, MEM[(volatile long unsigned int *)1109492124B]
 539 0190 83F00103 		eor	r3, r3, #1	@ _55, _54,
 540 0194 1360     		str	r3, [r2]	@ _55, MEM[(volatile long unsigned int *)1109492124B]
 541              	@ main.c:288: 			if(STCLK_MS*500 < (trg0 - SysTick->VAL)){
 542 0196 3B68     		ldr	r3, [r7]	@ trg0.0_23, trg0
 543 0198 B268     		ldr	r2, [r6, #8]	@ _24, MEM[(struct SysTick_Type *)3758153744B].VAL
 544 019a 9B1A     		subs	r3, r3, r2	@ tmp258, trg0.0_23, _24
 545 019c 4B45     		cmp	r3, r9	@ tmp258, tmp259
 546 019e D9D9     		bls	.L44	@,
 547              	.L52:
 548              	@ main.c:289: 				trg0 = SysTick->VAL;
 549 01a0 B268     		ldr	r2, [r6, #8]	@ _26, MEM[(struct SysTick_Type *)3758153744B].VAL
 550              	@ main.c:293: 				unt2uart(cnt++,5); UaPutS(" "); unt2uart(cnt2,6); UaPutS("\r");
 551 01a2 631C     		adds	r3, r4, #1	@ tmp264, cnt,
 552 01a4 2046     		mov	r0, r4	@, cnt
 553              	@ main.c:289: 				trg0 = SysTick->VAL;
 554 01a6 3A60     		str	r2, [r7]	@ _26, trg0
 555              	@ main.c:292: 				PutChar = UART2_putc;
 556 01a8 3C4C     		ldr	r4, .L53+36	@ tmp324,
 557 01aa 374A     		ldr	r2, .L53+16	@ tmp323,
 558              	@ main.c:293: 				unt2uart(cnt++,5); UaPutS(" "); unt2uart(cnt2,6); UaPutS("\r");
 559 01ac 0521     		movs	r1, #5	@,
 560              	@ main.c:292: 				PutChar = UART2_putc;
 561 01ae 1460     		str	r4, [r2]	@ tmp324, PutChar
 562              	@ main.c:293: 				unt2uart(cnt++,5); UaPutS(" "); unt2uart(cnt2,6); UaPutS("\r");
 563 01b0 9CB2     		uxth	r4, r3	@ cnt, tmp264
 564 01b2 FFF7FEFF 		bl	unt2uart	@
 565 01b6 3F48     		ldr	r0, .L53+60	@,
 566 01b8 FFF7FEFF 		bl	UaPutS	@
 567 01bc 0621     		movs	r1, #6	@,
 568 01be 2846     		mov	r0, r5	@, cnt2
 569 01c0 FFF7FEFF 		bl	unt2uart	@
 570 01c4 3C48     		ldr	r0, .L53+64	@,
ARM GAS  /tmp/ccDfNsWv.s 			page 11


 571 01c6 FFF7FEFF 		bl	UaPutS	@
 572              	@ main.c:294: 				PutChar = UART1_putc;
 573 01ca 2F4A     		ldr	r2, .L53+16	@ tmp325,
 574 01cc 304B     		ldr	r3, .L53+24	@ tmp326,
 575              	@ main.c:295: 				unt2uart(cnt  ,5); UaPutS("\r");
 576 01ce 2046     		mov	r0, r4	@, cnt
 577 01d0 0521     		movs	r1, #5	@,
 578              	@ main.c:294: 				PutChar = UART1_putc;
 579 01d2 1360     		str	r3, [r2]	@ tmp326, PutChar
 580              	@ main.c:295: 				unt2uart(cnt  ,5); UaPutS("\r");
 581 01d4 FFF7FEFF 		bl	unt2uart	@
 582 01d8 3748     		ldr	r0, .L53+64	@,
 583 01da FFF7FEFF 		bl	UaPutS	@
 584              	@ main.c:297: 				i2c1_read( INA219_ADDR,2,i2reg,2);
 585 01de 0223     		movs	r3, #2	@,
 586 01e0 03AA     		add	r2, sp, #12	@ tmp327,,
 587 01e2 1946     		mov	r1, r3	@,
 588 01e4 8020     		movs	r0, #128	@,
 589 01e6 FFF7FEFF 		bl	i2c1_read	@
 590              	@ main.c:298: 				vbus = ((i2reg[1] | (i2reg[0]<<8))>>3)*4;
 591 01ea BDF80C30 		ldrh	r3, [sp, #12]	@, MEM[(u08[2] *)&i2reg]
 592              	@ main.c:299: 				tr_locate(1,3);
 593 01ee 0321     		movs	r1, #3	@,
 594              	@ main.c:298: 				vbus = ((i2reg[1] | (i2reg[0]<<8))>>3)*4;
 595 01f0 5BBA     		rev16	r3, r3	@ tmp271, MEM[(u08[2] *)&i2reg]
 596 01f2 C3F3CC03 		ubfx	r3, r3, #3, #13	@ tmp274, tmp271,,
 597 01f6 9B00     		lsls	r3, r3, #2	@ vbus, tmp274,
 598              	@ main.c:299: 				tr_locate(1,3);
 599 01f8 0120     		movs	r0, #1	@,
 600              	@ main.c:298: 				vbus = ((i2reg[1] | (i2reg[0]<<8))>>3)*4;
 601 01fa 0193     		str	r3, [sp, #4]	@ vbus, %sfp
 602              	@ main.c:299: 				tr_locate(1,3);
 603 01fc FFF7FEFF 		bl	tr_locate	@
 604              	@ main.c:300: 				UaPutS("vbus=");
 605 0200 2E48     		ldr	r0, .L53+68	@,
 606 0202 FFF7FEFF 		bl	UaPutS	@
 607              	@ main.c:302: 				int2uart (vbus ,4,3);
 608 0206 019B     		ldr	r3, [sp, #4]	@ vbus, %sfp
 609 0208 0322     		movs	r2, #3	@,
 610 020a 1846     		mov	r0, r3	@, vbus
 611 020c 0421     		movs	r1, #4	@,
 612 020e FFF7FEFF 		bl	int2uart	@
 613              	@ main.c:304: 				i2c1_read(INA219_ADDR,4,i2reg,2);
 614 0212 03AA     		add	r2, sp, #12	@ tmp328,,
 615 0214 0421     		movs	r1, #4	@,
 616 0216 0223     		movs	r3, #2	@,
 617 0218 8020     		movs	r0, #128	@,
 618 021a FFF7FEFF 		bl	i2c1_read	@
 619              	@ main.c:305: 				cur = ((i2reg[1]) | (i2reg[0]<<8));
 620 021e 9DF80C20 		ldrb	r2, [sp, #12]	@ zero_extendqisi2	@ i2reg, i2reg
 621 0222 9DF80D30 		ldrb	r3, [sp, #13]	@ zero_extendqisi2	@ i2reg, i2reg
 622              	@ main.c:306: 				UaPutS(" cur=");
 623 0226 2648     		ldr	r0, .L53+72	@,
 624              	@ main.c:305: 				cur = ((i2reg[1]) | (i2reg[0]<<8));
 625 0228 43EA0223 		orr	r3, r3, r2, lsl #8	@ tmp284, i2reg, i2reg,
 626 022c 1BB2     		sxth	r3, r3	@ cur, tmp284
 627 022e 0193     		str	r3, [sp, #4]	@ cur, %sfp
ARM GAS  /tmp/ccDfNsWv.s 			page 12


 628              	@ main.c:306: 				UaPutS(" cur=");
 629 0230 FFF7FEFF 		bl	UaPutS	@
 630              	@ main.c:307: 				int2uart (cur,4,3);
 631 0234 019B     		ldr	r3, [sp, #4]	@ cur, %sfp
 632 0236 0322     		movs	r2, #3	@,
 633 0238 1846     		mov	r0, r3	@, cur
 634 023a 0421     		movs	r1, #4	@,
 635 023c FFF7FEFF 		bl	int2uart	@
 636              	@ main.c:309: 				tr_locate(1,2);
 637 0240 0221     		movs	r1, #2	@,
 638 0242 0120     		movs	r0, #1	@,
 639 0244 FFF7FEFF 		bl	tr_locate	@
 640 0248 84E7     		b	.L44	@
 641              	.L46:
 642              	@ main.c:323: 					UaPutS("\r\n");
 643 024a 1E48     		ldr	r0, .L53+76	@,
 644 024c FFF7FEFF 		bl	UaPutS	@
 645              	@ main.c:324: 					UaPutS("\t\ta Podaj liczbe ");
 646 0250 1D48     		ldr	r0, .L53+80	@,
 647 0252 FFF7FEFF 		bl	UaPutS	@
 648              	@ main.c:325: 					vr1 = UART_getNum();
 649 0256 FFF7FEFF 		bl	UART_getNum	@
 650 025a 0190     		str	r0, [sp, #4]	@ _53, %sfp
 651              	@ main.c:326: 					UaPutS(" num=");	
 652 025c 1B48     		ldr	r0, .L53+84	@,
 653 025e FFF7FEFF 		bl	UaPutS	@
 654              	@ main.c:327: 					unt2uart(vr1,4);
 655 0262 019B     		ldr	r3, [sp, #4]	@ _53, %sfp
 656 0264 0421     		movs	r1, #4	@,
 657 0266 98B2     		uxth	r0, r3	@, _53
 658 0268 FFF7FEFF 		bl	unt2uart	@
 659              	@ main.c:328: 					tr_locate( 1, 2 );
 660 026c 0221     		movs	r1, #2	@,
 661 026e 0120     		movs	r0, #1	@,
 662 0270 FFF7FEFF 		bl	tr_locate	@
 663              	@ main.c:331: 					break;
 664 0274 69E7     		b	.L42	@
 665              	.L54:
 666 0276 00BF     		.align	2
 667              	.L53:
 668 0278 000C0140 		.word	1073810432
 669 027c 00100240 		.word	1073876992
 670 0280 00080140 		.word	1073809408
 671 0284 00E100E0 		.word	-536813312
 672 0288 00000000 		.word	PutChar
 673 028c 00A24A04 		.word	72000000
 674 0290 00000000 		.word	UART1_putc
 675 0294 00000000 		.word	.LC10
 676 0298 0C000000 		.word	.LC11
 677 029c 00000000 		.word	UART2_putc
 678 02a0 14000000 		.word	.LC12
 679 02a4 20000000 		.word	.LC13
 680 02a8 00000000 		.word	trg0
 681 02ac 10E000E0 		.word	-536813552
 682 02b0 9C812142 		.word	1109492124
 683 02b4 28000000 		.word	.LC14
 684 02b8 2C000000 		.word	.LC15
ARM GAS  /tmp/ccDfNsWv.s 			page 13


 685 02bc 30000000 		.word	.LC16
 686 02c0 38000000 		.word	.LC17
 687 02c4 40000000 		.word	.LC18
 688 02c8 44000000 		.word	.LC19
 689 02cc 58000000 		.word	.LC20
 690 02d0 00440040 		.word	1073759232
 691 02d4 00000000 		.word	p_Fifo1
 692 02d8 20AA4400 		.word	4500000
 693 02dc 2C812142 		.word	1109492012
 694 02e0 B4012242 		.word	1109524916
 695              		.size	minios, .-minios
 696              		.section	.text.startup.main,"ax",%progbits
 697              		.align	1
 698              		.p2align 2,,3
 699              		.global	main
 700              		.syntax unified
 701              		.thumb
 702              		.thumb_func
 703              		.fpu softvfp
 704              		.type	main, %function
 705              	main:
 706              		@ Volatile: function does not return.
 707              		@ args = 0, pretend = 0, frame = 0
 708              		@ frame_needed = 0, uses_anonymous_args = 0
 709              	@ main.c:5644: 	RCC_CR_HSEON_bb = 1;						// enable HSE clock
 710 0000 0121     		movs	r1, #1	@ tmp123,
 711              	@ main.c:228: int main(void){
 712 0002 08B5     		push	{r3, lr}	@
 713              	@ main.c:5644: 	RCC_CR_HSEON_bb = 1;						// enable HSE clock
 714 0004 1B4B     		ldr	r3, .L65	@ tmp122,
 715              	@ main.c:5645: 	while (!RCC_CR_HSERDY_bb);			// wait for stable clock
 716 0006 1C4A     		ldr	r2, .L65+4	@ tmp124,
 717              	@ main.c:5644: 	RCC_CR_HSEON_bb = 1;						// enable HSE clock
 718 0008 1960     		str	r1, [r3]	@ tmp123, MEM[(volatile long unsigned int *)1111621696B]
 719              	.L56:
 720              	@ main.c:5645: 	while (!RCC_CR_HSERDY_bb);			// wait for stable clock
 721 000a 1368     		ldr	r3, [r2]	@ _14, MEM[(volatile long unsigned int *)1111621700B]
 722 000c 002B     		cmp	r3, #0	@ _14
 723 000e FCD0     		beq	.L56	@
 724              	@ main.c:5649: 	RCC_CR_PLLON_bb = 1;						// enable PLL
 725 0010 0124     		movs	r4, #1	@ tmp129,
 726              	@ main.c:5647: 	RCC->CFGR |= ((mul - 2)<<RCC_CFGR_PLLMUL_bit)|RCC_CFGR_PLLSRC|RCC_CFGR_PPRE1_DIV2;	
 727 0012 1A49     		ldr	r1, .L65+8	@ tmp125,
 728              	@ main.c:5649: 	RCC_CR_PLLON_bb = 1;						// enable PLL
 729 0014 1A48     		ldr	r0, .L65+12	@ tmp128,
 730              	@ main.c:5647: 	RCC->CFGR |= ((mul - 2)<<RCC_CFGR_PLLMUL_bit)|RCC_CFGR_PLLSRC|RCC_CFGR_PPRE1_DIV2;	
 731 0016 4B68     		ldr	r3, [r1, #4]	@ _15, MEM[(struct RCC_TypeDef *)1073876992B].CFGR
 732              	@ main.c:5650: 	while (!RCC_CR_PLLRDY_bb);			// wait for PLL lock
 733 0018 1A4A     		ldr	r2, .L65+16	@ tmp130,
 734              	@ main.c:5647: 	RCC->CFGR |= ((mul - 2)<<RCC_CFGR_PLLMUL_bit)|RCC_CFGR_PLLSRC|RCC_CFGR_PPRE1_DIV2;	
 735 001a 43F4E813 		orr	r3, r3, #1900544	@ _20, _15,
 736 001e 43F48063 		orr	r3, r3, #1024	@ _20, _20,
 737 0022 4B60     		str	r3, [r1, #4]	@ _20, MEM[(struct RCC_TypeDef *)1073876992B].CFGR
 738              	@ main.c:5649: 	RCC_CR_PLLON_bb = 1;						// enable PLL
 739 0024 0460     		str	r4, [r0]	@ tmp129, MEM[(volatile long unsigned int *)1111621728B]
 740              	.L57:
 741              	@ main.c:5650: 	while (!RCC_CR_PLLRDY_bb);			// wait for PLL lock
ARM GAS  /tmp/ccDfNsWv.s 			page 14


 742 0026 1368     		ldr	r3, [r2]	@ _21, MEM[(volatile long unsigned int *)1111621732B]
 743 0028 002B     		cmp	r3, #0	@ _21
 744 002a FCD0     		beq	.L57	@
 745              	@ main.c:5652: 	RCC->CFGR |= RCC_CFGR_SW_PLL;		// change SYSCLK to PLL
 746 002c 134B     		ldr	r3, .L65+8	@ tmp131,
 747              	@ main.c:5653: 	while (((RCC->CFGR) & RCC_CFGR_SWS) != RCC_CFGR_SWS_PLL);	// wait for switch
 748 002e 1A46     		mov	r2, r3	@ tmp133, tmp131
 749              	@ main.c:5652: 	RCC->CFGR |= RCC_CFGR_SW_PLL;		// change SYSCLK to PLL
 750 0030 5968     		ldr	r1, [r3, #4]	@ _22, MEM[(struct RCC_TypeDef *)1073876992B].CFGR
 751 0032 41F00201 		orr	r1, r1, #2	@ _23, _22,
 752 0036 5960     		str	r1, [r3, #4]	@ _23, MEM[(struct RCC_TypeDef *)1073876992B].CFGR
 753              	.L58:
 754              	@ main.c:5653: 	while (((RCC->CFGR) & RCC_CFGR_SWS) != RCC_CFGR_SWS_PLL);	// wait for switch
 755 0038 5368     		ldr	r3, [r2, #4]	@ _24, MEM[(struct RCC_TypeDef *)1073876992B].CFGR
 756 003a 03F00C03 		and	r3, r3, #12	@ tmp134, _24,
 757 003e 082B     		cmp	r3, #8	@ tmp134,
 758 0040 FAD1     		bne	.L58	@,
 759              	@ main.c:5656: 	RCC->APB2ENR = RCC_APB2ENR_IOPAEN | RCC_APB2ENR_IOPBEN | RCC_APB2ENR_IOPCEN | RCC_A
 760 0042 1D20     		movs	r0, #29	@ tmp138,
 761              	@ main.c:187: 	SCB->VTOR = NVIC_VectTab_RAM;
 762 0044 4FF00056 		mov	r6, #536870912	@ tmp136,
 763              	@ main.c:195: 	AFIO->MAPR = AFIO_MAPR_SWJ_CFG_1; // enable pin PA15=JTDI,PB3=JTDO,PB4=JNTRST,
 764 0048 4FF00075 		mov	r5, #33554432	@ tmp140,
 765              	@ main.c:5450: 	SysTick->CTRL = SysTick_CTRL_TICKINT|SysTick_CTRL_ENABLE; // enable SysTick
 766 004c 0321     		movs	r1, #3	@ tmp144,
 767              	@ main.c:187: 	SCB->VTOR = NVIC_VectTab_RAM;
 768 004e 0E4B     		ldr	r3, .L65+20	@ tmp135,
 769              	@ main.c:195: 	AFIO->MAPR = AFIO_MAPR_SWJ_CFG_1; // enable pin PA15=JTDI,PB3=JTDO,PB4=JNTRST,
 770 0050 0E4C     		ldr	r4, .L65+24	@ tmp139,
 771              	@ main.c:187: 	SCB->VTOR = NVIC_VectTab_RAM;
 772 0052 9E60     		str	r6, [r3, #8]	@ tmp136, MEM[(struct SCB_Type *)3758157056B].VTOR
 773              	@ main.c:5656: 	RCC->APB2ENR = RCC_APB2ENR_IOPAEN | RCC_APB2ENR_IOPBEN | RCC_APB2ENR_IOPCEN | RCC_A
 774 0054 9061     		str	r0, [r2, #24]	@ tmp138, MEM[(struct RCC_TypeDef *)1073876992B].APB2ENR
 775              	@ main.c:5449: 	SysTick->LOAD = STCLK_LD - 1;    // 72/8/SysTick_LOAD interrupt every x s
 776 0056 0E48     		ldr	r0, .L65+28	@ tmp142,
 777 0058 A3F54F63 		sub	r3, r3, #3312	@ tmp141, tmp141,
 778              	@ main.c:232: 		 GPIOC->CRH = (GPIOC->CRH & 0xff0fffff) | 0x00100000;	// LED Blue  PC13		
 779 005c 0D4A     		ldr	r2, .L65+32	@ tmp145,
 780              	@ main.c:195: 	AFIO->MAPR = AFIO_MAPR_SWJ_CFG_1; // enable pin PA15=JTDI,PB3=JTDO,PB4=JNTRST,
 781 005e 6560     		str	r5, [r4, #4]	@ tmp140, MEM[(struct AFIO_TypeDef *)1073807360B].MAPR
 782              	@ main.c:5449: 	SysTick->LOAD = STCLK_LD - 1;    // 72/8/SysTick_LOAD interrupt every x s
 783 0060 5860     		str	r0, [r3, #4]	@ tmp142, MEM[(struct SysTick_Type *)3758153744B].LOAD
 784              	@ main.c:5450: 	SysTick->CTRL = SysTick_CTRL_TICKINT|SysTick_CTRL_ENABLE; // enable SysTick
 785 0062 1960     		str	r1, [r3]	@ tmp144, MEM[(struct SysTick_Type *)3758153744B].CTRL
 786              	@ main.c:232: 		 GPIOC->CRH = (GPIOC->CRH & 0xff0fffff) | 0x00100000;	// LED Blue  PC13		
 787 0064 5368     		ldr	r3, [r2, #4]	@ _1, MEM[(struct GPIO_TypeDef *)1073811456B].CRH
 788 0066 23F47003 		bic	r3, r3, #15728640	@ tmp146, _1,
 789 006a 43F48013 		orr	r3, r3, #1048576	@ _3, tmp146,
 790 006e 5360     		str	r3, [r2, #4]	@ _3, MEM[(struct GPIO_TypeDef *)1073811456B].CRH
 791              	@ main.c:243: 		minios();
 792 0070 FFF7FEFF 		bl	minios	@
 793              	.L66:
 794              		.align	2
 795              	.L65:
 796 0074 40004242 		.word	1111621696
 797 0078 44004242 		.word	1111621700
 798 007c 00100240 		.word	1073876992
ARM GAS  /tmp/ccDfNsWv.s 			page 15


 799 0080 60004242 		.word	1111621728
 800 0084 64004242 		.word	1111621732
 801 0088 00ED00E0 		.word	-536810240
 802 008c 00000140 		.word	1073807360
 803 0090 3F548900 		.word	8999999
 804 0094 00100140 		.word	1073811456
 805              		.size	main, .-main
 806              		.section	.text.liontrend,"ax",%progbits
 807              		.align	1
 808              		.p2align 2,,3
 809              		.global	liontrend
 810              		.syntax unified
 811              		.thumb
 812              		.thumb_func
 813              		.fpu softvfp
 814              		.type	liontrend, %function
 815              	liontrend:
 816              		@ args = 0, pretend = 0, frame = 0
 817              		@ frame_needed = 0, uses_anonymous_args = 0
 818 0000 2DE9F843 		push	{r3, r4, r5, r6, r7, r8, r9, lr}	@
 819              	@ main.c:345: 		v[6] = (100*(v[0]-v[1]))/(v[2]-v[3]); //a=(y2-y1)/(x2-x1)
 820 0004 6423     		movs	r3, #100	@ tmp194,
 821 0006 B0F90060 		ldrsh	r6, [r0]	@ _1, *v_82(D)
 822 000a B0F902E0 		ldrsh	lr, [r0, #2]	@ _3, MEM[(s16 *)v_82(D) + 2B]
 823 000e B0F90440 		ldrsh	r4, [r0, #4]	@ _8, MEM[(s16 *)v_82(D) + 4B]
 824 0012 A6EB0E0C 		sub	ip, r6, lr	@ tmp192, _1, _3
 825 0016 03FB0CFC 		mul	ip, r3, ip	@ tmp193, tmp194, tmp192
 826 001a B0F90620 		ldrsh	r2, [r0, #6]	@ _10, MEM[(s16 *)v_82(D) + 6B]
 827              	@ main.c:343: void liontrend(s16 v[],s16 c[]){
 828 001e 0546     		mov	r5, r0	@ v, v
 829              	@ main.c:345: 		v[6] = (100*(v[0]-v[1]))/(v[2]-v[3]); //a=(y2-y1)/(x2-x1)
 830 0020 A01A     		subs	r0, r4, r2	@ tmp195, _8, _10
 831 0022 9CFBF0FC 		sdiv	ip, ip, r0	@ tmp197, tmp193, tmp195
 832 0026 0FFA8CFC 		sxth	ip, ip	@ _13, tmp197
 833              	@ main.c:346: 		v[5] = v[0]-v[6]*v[2]/100;  //b=y-ax
 834 002a 0CFB04F4 		mul	r4, ip, r4	@ tmp199, _13, _8
 835 002e 3D4F     		ldr	r7, .L69	@ tmp202,
 836              	@ main.c:347: 		v[4] = v[1]-v[6]*v[3]/100;  //b=y-ax;
 837 0030 0CFB02F2 		mul	r2, ip, r2	@ tmp209, _13, _10
 838              	@ main.c:346: 		v[5] = v[0]-v[6]*v[2]/100;  //b=y-ax
 839 0034 87FB0408 		smull	r0, r8, r7, r4	@ tmp275, tmp201, tmp202, tmp199
 840 0038 E017     		asrs	r0, r4, #31	@ tmp204, tmp199,
 841 003a A0EB6810 		sub	r0, r0, r8, asr #5	@ tmp200, tmp204, tmp201,
 842 003e 3044     		add	r0, r0, r6	@ tmp207, _1
 843 0040 00B2     		sxth	r0, r0	@ _20, tmp207
 844              	@ main.c:348: 		v[7] = 100*(339-v[5])/v[6]; //x=(y-b)/a
 845 0042 C0F5A974 		rsb	r4, r0, #338	@ tmp220, _20,
 846 0046 0134     		adds	r4, r4, #1	@ tmp220, tmp220,
 847 0048 03FB04F4 		mul	r4, r3, r4	@ tmp221, tmp194, tmp220
 848 004c 94FBFCF4 		sdiv	r4, r4, ip	@ tmp224, tmp221, _13
 849              	@ main.c:343: void liontrend(s16 v[],s16 c[]){
 850 0050 0E46     		mov	r6, r1	@ c, c
 851              	@ main.c:347: 		v[4] = v[1]-v[6]*v[3]/100;  //b=y-ax;
 852 0052 87FB0281 		smull	r8, r1, r7, r2	@ tmp276, tmp211, tmp202, tmp209
 853 0056 D217     		asrs	r2, r2, #31	@ tmp214, tmp209,
 854 0058 A2EB6112 		sub	r2, r2, r1, asr #5	@ tmp210, tmp214, tmp211,
 855 005c 7244     		add	r2, r2, lr	@ tmp217, _3
ARM GAS  /tmp/ccDfNsWv.s 			page 16


 856 005e 2A81     		strh	r2, [r5, #8]	@ movhi	@ tmp217, MEM[(s16 *)v_82(D) + 8B]
 857              	@ main.c:346: 		v[5] = v[0]-v[6]*v[2]/100;  //b=y-ax
 858 0060 6881     		strh	r0, [r5, #10]	@ movhi	@ _20, MEM[(s16 *)v_82(D) + 10B]
 859              	@ main.c:348: 		v[7] = 100*(339-v[5])/v[6]; //x=(y-b)/a
 860 0062 EC81     		strh	r4, [r5, #14]	@ movhi	@ tmp224, MEM[(s16 *)v_82(D) + 14B]
 861              	@ main.c:345: 		v[6] = (100*(v[0]-v[1]))/(v[2]-v[3]); //a=(y2-y1)/(x2-x1)
 862 0064 A5F80CC0 		strh	ip, [r5, #12]	@ movhi	@ _13, MEM[(s16 *)v_82(D) + 12B]
 863              	@ main.c:350: 		c[6] = (100*(c[0]-c[1]))/(c[2]-c[3]);
 864 0068 B6F900E0 		ldrsh	lr, [r6]	@ _32, *c_87(D)
 865 006c B6F902C0 		ldrsh	ip, [r6, #2]	@ _34, MEM[(s16 *)c_87(D) + 2B]
 866 0070 B6F90440 		ldrsh	r4, [r6, #4]	@ _39, MEM[(s16 *)c_87(D) + 4B]
 867 0074 AEEB0C02 		sub	r2, lr, ip	@ tmp226, _32, _34
 868 0078 03FB02F3 		mul	r3, r3, r2	@ tmp227, tmp194, tmp226
 869 007c B6F90610 		ldrsh	r1, [r6, #6]	@ _41, MEM[(s16 *)c_87(D) + 6B]
 870              	@ main.c:355: 		UaPutS("v="); sint2uart(v[6]); sint2uart(v[5]); sint2uart(v[4]); sint2uart(v[7]); U
 871 0080 2948     		ldr	r0, .L69+4	@,
 872              	@ main.c:350: 		c[6] = (100*(c[0]-c[1]))/(c[2]-c[3]);
 873 0082 621A     		subs	r2, r4, r1	@ tmp229, _39, _41
 874 0084 93FBF2F3 		sdiv	r3, r3, r2	@ tmp231, tmp227, tmp229
 875 0088 1BB2     		sxth	r3, r3	@ _44, tmp231
 876              	@ main.c:351: 		c[5] = c[0]-c[6]*c[2]/100;//y-ax
 877 008a 03FB04F4 		mul	r4, r3, r4	@ tmp233, _44, _39
 878              	@ main.c:352: 		c[4] = c[1]-c[6]*c[3]/100;//y-ax
 879 008e 03FB01F1 		mul	r1, r3, r1	@ tmp243, _44, _41
 880              	@ main.c:351: 		c[5] = c[0]-c[6]*c[2]/100;//y-ax
 881 0092 87FB0429 		smull	r2, r9, r7, r4	@ tmp277, tmp235, tmp202, tmp233
 882              	@ main.c:352: 		c[4] = c[1]-c[6]*c[3]/100;//y-ax
 883 0096 87FB0128 		smull	r2, r8, r7, r1	@ tmp278, tmp245, tmp202, tmp243
 884              	@ main.c:351: 		c[5] = c[0]-c[6]*c[2]/100;//y-ax
 885 009a E217     		asrs	r2, r4, #31	@ tmp238, tmp233,
 886 009c A2EB6912 		sub	r2, r2, r9, asr #5	@ tmp234, tmp238, tmp235,
 887              	@ main.c:352: 		c[4] = c[1]-c[6]*c[3]/100;//y-ax
 888 00a0 C917     		asrs	r1, r1, #31	@ tmp248, tmp243,
 889              	@ main.c:351: 		c[5] = c[0]-c[6]*c[2]/100;//y-ax
 890 00a2 7244     		add	r2, r2, lr	@ tmp241, _32
 891              	@ main.c:352: 		c[4] = c[1]-c[6]*c[3]/100;//y-ax
 892 00a4 A1EB6811 		sub	r1, r1, r8, asr #5	@ tmp244, tmp248, tmp245,
 893 00a8 6144     		add	r1, r1, ip	@ tmp251, _34
 894              	@ main.c:351: 		c[5] = c[0]-c[6]*c[2]/100;//y-ax
 895 00aa 92B2     		uxth	r2, r2	@ _50, tmp241
 896              	@ main.c:350: 		c[6] = (100*(c[0]-c[1]))/(c[2]-c[3]);
 897 00ac B381     		strh	r3, [r6, #12]	@ movhi	@ _44, MEM[(s16 *)c_87(D) + 12B]
 898              	@ main.c:351: 		c[5] = c[0]-c[6]*c[2]/100;//y-ax
 899 00ae 7281     		strh	r2, [r6, #10]	@ movhi	@ _50, MEM[(s16 *)c_87(D) + 10B]
 900              	@ main.c:352: 		c[4] = c[1]-c[6]*c[3]/100;//y-ax
 901 00b0 3181     		strh	r1, [r6, #8]	@ movhi	@ tmp251, MEM[(s16 *)c_87(D) + 8B]
 902              	@ main.c:353: 		c[7] = c[5]+c[6]*v[7]/100;// szukana pojemnosc
 903 00b2 B5F90E10 		ldrsh	r1, [r5, #14]	@ MEM[(s16 *)v_82(D) + 14B], MEM[(s16 *)v_82(D) + 14B]
 904              	@ main.c:355: 		UaPutS("v="); sint2uart(v[6]); sint2uart(v[5]); sint2uart(v[4]); sint2uart(v[7]); U
 905 00b6 1D4C     		ldr	r4, .L69+8	@ tmp268,
 906              	@ main.c:353: 		c[7] = c[5]+c[6]*v[7]/100;// szukana pojemnosc
 907 00b8 03FB01F3 		mul	r3, r3, r1	@ tmp254, _44, MEM[(s16 *)v_82(D) + 14B]
 908 00bc 87FB0317 		smull	r1, r7, r7, r3	@ tmp279, tmp256, tmp202, tmp254
 909 00c0 DB17     		asrs	r3, r3, #31	@ tmp259, tmp254,
 910 00c2 C3EB6713 		rsb	r3, r3, r7, asr #5	@ tmp255, tmp259, tmp256,
 911 00c6 1A44     		add	r2, r2, r3	@ tmp261, tmp255
 912 00c8 F281     		strh	r2, [r6, #14]	@ movhi	@ tmp261, MEM[(s16 *)c_87(D) + 14B]
ARM GAS  /tmp/ccDfNsWv.s 			page 17


 913              	@ main.c:355: 		UaPutS("v="); sint2uart(v[6]); sint2uart(v[5]); sint2uart(v[4]); sint2uart(v[7]); U
 914 00ca FFF7FEFF 		bl	UaPutS	@
 915 00ce B5F90C00 		ldrsh	r0, [r5, #12]	@, MEM[(s16 *)v_82(D) + 12B]
 916 00d2 FFF7FEFF 		bl	sint2uart	@
 917 00d6 B5F90A00 		ldrsh	r0, [r5, #10]	@, MEM[(s16 *)v_82(D) + 10B]
 918 00da FFF7FEFF 		bl	sint2uart	@
 919 00de B5F90800 		ldrsh	r0, [r5, #8]	@, MEM[(s16 *)v_82(D) + 8B]
 920 00e2 FFF7FEFF 		bl	sint2uart	@
 921 00e6 B5F90E00 		ldrsh	r0, [r5, #14]	@, MEM[(s16 *)v_82(D) + 14B]
 922 00ea FFF7FEFF 		bl	sint2uart	@
 923 00ee 2046     		mov	r0, r4	@, tmp268
 924 00f0 FFF7FEFF 		bl	UaPutS	@
 925              	@ main.c:356: 		UaPutS("c="); sint2uart(c[6]); sint2uart(c[5]); sint2uart(c[4]); sint2uart(c[7]); U
 926 00f4 0E48     		ldr	r0, .L69+12	@,
 927 00f6 FFF7FEFF 		bl	UaPutS	@
 928 00fa B6F90C00 		ldrsh	r0, [r6, #12]	@, MEM[(s16 *)c_87(D) + 12B]
 929 00fe FFF7FEFF 		bl	sint2uart	@
 930 0102 B6F90A00 		ldrsh	r0, [r6, #10]	@, MEM[(s16 *)c_87(D) + 10B]
 931 0106 FFF7FEFF 		bl	sint2uart	@
 932 010a B6F90800 		ldrsh	r0, [r6, #8]	@, MEM[(s16 *)c_87(D) + 8B]
 933 010e FFF7FEFF 		bl	sint2uart	@
 934 0112 B6F90E00 		ldrsh	r0, [r6, #14]	@, MEM[(s16 *)c_87(D) + 14B]
 935 0116 FFF7FEFF 		bl	sint2uart	@
 936 011a 2046     		mov	r0, r4	@, tmp268
 937              	@ main.c:357: 	}
 938 011c BDE8F843 		pop	{r3, r4, r5, r6, r7, r8, r9, lr}	@
 939              	@ main.c:356: 		UaPutS("c="); sint2uart(c[6]); sint2uart(c[5]); sint2uart(c[4]); sint2uart(c[7]); U
 940 0120 FFF7FEBF 		b	UaPutS	@
 941              	.L70:
 942              		.align	2
 943              	.L69:
 944 0124 1F85EB51 		.word	1374389535
 945 0128 00000000 		.word	.LC21
 946 012c 40000000 		.word	.LC18
 947 0130 04000000 		.word	.LC22
 948              		.size	liontrend, .-liontrend
 949              		.section	.text.oblicz,"ax",%progbits
 950              		.align	1
 951              		.p2align 2,,3
 952              		.global	oblicz
 953              		.syntax unified
 954              		.thumb
 955              		.thumb_func
 956              		.fpu softvfp
 957              		.type	oblicz, %function
 958              	oblicz:
 959              		@ Volatile: function does not return.
 960              		@ args = 0, pretend = 0, frame = 80
 961              		@ frame_needed = 0, uses_anonymous_args = 0
 962              	@ main.c:5357: 	USART1->BRR = (F_CPU+UART1_SPEED/2)/UART1_SPEED;
 963 0000 40F27126 		movw	r6, #625	@ tmp141,
 964              	@ ./inc/core_cm3.h:1504:   NVIC->ISER[((uint32_t)(IRQn) >> 5)] = (1 << ((uint32_t)(IRQn) & 0x1F)); 
 965 0004 2025     		movs	r5, #32	@ tmp143,
 966              	@ main.c:358: void oblicz(void){
 967 0006 80B5     		push	{r7, lr}	@
 968 0008 94B0     		sub	sp, sp, #80	@,,
 969              	@ main.c:360: 		BkpRegInit();
ARM GAS  /tmp/ccDfNsWv.s 			page 18


 970 000a FFF7FEFF 		bl	BkpRegInit	@
 971              	@ main.c:366: 		PB12_o = 0;		// rozladowanie
 972 000e 0022     		movs	r2, #0	@ tmp150,
 973              	@ main.c:368: 		PB14_o = 1;   // dzwonek
 974 0010 0121     		movs	r1, #1	@ tmp154,
 975              	@ main.c:5354: 	RCC->APB2ENR |= RCC_APB2ENR_USART1EN;
 976 0012 324F     		ldr	r7, .L74	@ tmp126,
 977              	@ main.c:5355: 	GPIOA->CRH = (GPIOA->CRH & 0xfffff00f) | 0x00000490; // PA9=TX, PA10=RX
 978 0014 3248     		ldr	r0, .L74+4	@ tmp128,
 979              	@ main.c:5354: 	RCC->APB2ENR |= RCC_APB2ENR_USART1EN;
 980 0016 BB69     		ldr	r3, [r7, #24]	@ _28, MEM[(struct RCC_TypeDef *)1073876992B].APB2ENR
 981              	@ main.c:5356: 	USART1->CR1 |= (USART_CR1_UE |USART_CR1_TE | USART_CR1_RE	|USART_CR1_RXNEIE);
 982 0018 324C     		ldr	r4, .L74+8	@ tmp131,
 983              	@ main.c:5354: 	RCC->APB2ENR |= RCC_APB2ENR_USART1EN;
 984 001a 43F48043 		orr	r3, r3, #16384	@ _29, _28,
 985 001e BB61     		str	r3, [r7, #24]	@ _29, MEM[(struct RCC_TypeDef *)1073876992B].APB2ENR
 986              	@ main.c:5355: 	GPIOA->CRH = (GPIOA->CRH & 0xfffff00f) | 0x00000490; // PA9=TX, PA10=RX
 987 0020 4368     		ldr	r3, [r0, #4]	@ _30, MEM[(struct GPIO_TypeDef *)1073809408B].CRH
 988              	@ ./inc/core_cm3.h:1504:   NVIC->ISER[((uint32_t)(IRQn) >> 5)] = (1 << ((uint32_t)(IRQn) & 0x1F)); 
 989 0022 314F     		ldr	r7, .L74+12	@ tmp142,
 990              	@ main.c:5355: 	GPIOA->CRH = (GPIOA->CRH & 0xfffff00f) | 0x00000490; // PA9=TX, PA10=RX
 991 0024 23F47F63 		bic	r3, r3, #4080	@ tmp129, _30,
 992 0028 43F49263 		orr	r3, r3, #1168	@ _32, tmp129,
 993 002c 4360     		str	r3, [r0, #4]	@ _32, MEM[(struct GPIO_TypeDef *)1073809408B].CRH
 994              	@ main.c:5356: 	USART1->CR1 |= (USART_CR1_UE |USART_CR1_TE | USART_CR1_RE	|USART_CR1_RXNEIE);
 995 002e A389     		ldrh	r3, [r4, #12]	@, MEM[(struct USART_TypeDef *)1073821696B].CR1
 996              	@ main.c:366: 		PB12_o = 0;		// rozladowanie
 997 0030 DFF8D8C0 		ldr	ip, .L74+48	@ tmp149,
 998              	@ main.c:5356: 	USART1->CR1 |= (USART_CR1_UE |USART_CR1_TE | USART_CR1_RE	|USART_CR1_RXNEIE);
 999 0034 43F40053 		orr	r3, r3, #8192	@ _34, MEM[(struct USART_TypeDef *)1073821696B].CR1,
 1000 0038 43F02C03 		orr	r3, r3, #44	@ _34, _34,
 1001 003c A381     		strh	r3, [r4, #12]	@ movhi	@ _34, MEM[(struct USART_TypeDef *)1073821696B].CR1
 1002              	@ main.c:5357: 	USART1->BRR = (F_CPU+UART1_SPEED/2)/UART1_SPEED;
 1003 003e 2681     		strh	r6, [r4, #8]	@ movhi	@ tmp141, MEM[(struct USART_TypeDef *)1073821696B].BRR
 1004              	@ ./inc/core_cm3.h:1504:   NVIC->ISER[((uint32_t)(IRQn) >> 5)] = (1 << ((uint32_t)(IRQn) & 0x1F)); 
 1005 0040 7D60     		str	r5, [r7, #4]	@ tmp143, MEM[(struct NVIC_Type *)3758153984B].ISER
 1006              	@ main.c:364: 		GPIOB->CRH = (GPIOB->CRH & 0xf000ffff) | 0x05550000;
 1007 0042 D0F80434 		ldr	r3, [r0, #1028]	@ _1, MEM[(struct GPIO_TypeDef *)1073810432B].CRH
 1008              	@ main.c:367: 		PB13_o = 0;   // ladowanie
 1009 0046 294F     		ldr	r7, .L74+16	@ tmp151,
 1010              	@ main.c:364: 		GPIOB->CRH = (GPIOB->CRH & 0xf000ffff) | 0x05550000;
 1011 0048 23F07F63 		bic	r3, r3, #267386880	@ tmp145, _1,
 1012 004c 23F47023 		bic	r3, r3, #983040	@ tmp145, tmp145,
 1013 0050 43F0AA63 		orr	r3, r3, #89128960	@ _3, tmp145,
 1014              	@ main.c:368: 		PB14_o = 1;   // dzwonek
 1015 0054 264E     		ldr	r6, .L74+20	@ tmp153,
 1016              	@ main.c:364: 		GPIOB->CRH = (GPIOB->CRH & 0xf000ffff) | 0x05550000;
 1017 0056 43F4A023 		orr	r3, r3, #327680	@ _3, _3,
 1018 005a C0F80434 		str	r3, [r0, #1028]	@ _3, MEM[(struct GPIO_TypeDef *)1073810432B].CRH
 1019              	@ main.c:370: 		PutChar = UART1_putc;	tr_pen_color ( TYELLOW );
 1020 005e 254D     		ldr	r5, .L74+24	@ tmp155,
 1021 0060 254B     		ldr	r3, .L74+28	@ tmp156,
 1022              	@ main.c:366: 		PB12_o = 0;		// rozladowanie
 1023 0062 CCF80020 		str	r2, [ip]	@ tmp150, MEM[(volatile long unsigned int *)1109492144B]
 1024              	@ main.c:370: 		PutChar = UART1_putc;	tr_pen_color ( TYELLOW );
 1025 0066 0320     		movs	r0, #3	@,
 1026              	@ main.c:367: 		PB13_o = 0;   // ladowanie
ARM GAS  /tmp/ccDfNsWv.s 			page 19


 1027 0068 3A60     		str	r2, [r7]	@ tmp150, MEM[(volatile long unsigned int *)1109492148B]
 1028              	@ main.c:368: 		PB14_o = 1;   // dzwonek
 1029 006a 3160     		str	r1, [r6]	@ tmp154, MEM[(volatile long unsigned int *)1109492152B]
 1030              	@ main.c:370: 		PutChar = UART1_putc;	tr_pen_color ( TYELLOW );
 1031 006c 2B60     		str	r3, [r5]	@ tmp156, PutChar
 1032 006e FFF7FEFF 		bl	tr_pen_color	@
 1033              	@ main.c:371: 		UaPutS("\f UART1 "); UaPutS (uint2str( (F_CPU/1)/(1*USART1->BRR-1),buf));	
 1034 0072 2248     		ldr	r0, .L74+32	@,
 1035 0074 FFF7FEFF 		bl	UaPutS	@
 1036 0078 2389     		ldrh	r3, [r4, #8]	@, MEM[(struct USART_TypeDef *)1073821696B].BRR
 1037 007a 2148     		ldr	r0, .L74+36	@ tmp165,
 1038 007c 013B     		subs	r3, r3, #1	@ tmp162, MEM[(struct USART_TypeDef *)1073821696B].BRR,
 1039 007e B0FBF3F0 		udiv	r0, r0, r3	@, tmp165, tmp162
 1040 0082 01A9     		add	r1, sp, #4	@,,
 1041 0084 FFF7FEFF 		bl	uint2str	@
 1042              	@ main.c:375: 		s16 v[8]={365,356,0, 30,0,0,0,0};
 1043 0088 1E4C     		ldr	r4, .L74+40	@ tmp167,
 1044              	@ main.c:371: 		UaPutS("\f UART1 "); UaPutS (uint2str( (F_CPU/1)/(1*USART1->BRR-1),buf));	
 1045 008a FFF7FEFF 		bl	UaPutS	@
 1046              	@ main.c:372: 		UaPutS (" b/s \r\n");
 1047 008e 1E48     		ldr	r0, .L74+44	@,
 1048 0090 FFF7FEFF 		bl	UaPutS	@
 1049              	@ main.c:375: 		s16 v[8]={365,356,0, 30,0,0,0,0};
 1050 0094 94E80F00 		ldm	r4, {r0, r1, r2, r3}	@ tmp167,,,,
 1051              	@ main.c:376: 		s16 c[8]={2000 ,6400 ,0, 30,0,0,0,0};
 1052 0098 04F11005 		add	r5, r4, #16	@ tmp172, tmp167,
 1053 009c 0DF1200C 		add	ip, sp, #32	@ tmp171,,
 1054              	@ main.c:378: 		s16 a[8]={342,336,0,2,0,0,0,0};
 1055 00a0 04F12006 		add	r6, r4, #32	@ tmp175, tmp167,
 1056              	@ main.c:375: 		s16 v[8]={365,356,0, 30,0,0,0,0};
 1057 00a4 04AF     		add	r7, sp, #16	@ tmp168,,
 1058 00a6 87E80F00 		stm	r7, {r0, r1, r2, r3}	@ tmp168,,,,
 1059              	@ main.c:376: 		s16 c[8]={2000 ,6400 ,0, 30,0,0,0,0};
 1060 00aa 95E80F00 		ldm	r5, {r0, r1, r2, r3}	@ tmp172,,,,
 1061              	@ main.c:379: 		s16 b[8]={114,263,0,2,0,0,0,0};
 1062 00ae 3034     		adds	r4, r4, #48	@ tmp178, tmp167,
 1063              	@ main.c:378: 		s16 a[8]={342,336,0,2,0,0,0,0};
 1064 00b0 0CAD     		add	r5, sp, #48	@ tmp174,,
 1065              	@ main.c:376: 		s16 c[8]={2000 ,6400 ,0, 30,0,0,0,0};
 1066 00b2 8CE80F00 		stm	ip, {r0, r1, r2, r3}	@ tmp171,,,,
 1067              	@ main.c:378: 		s16 a[8]={342,336,0,2,0,0,0,0};
 1068 00b6 96E80F00 		ldm	r6, {r0, r1, r2, r3}	@ tmp175,,,,
 1069              	@ main.c:379: 		s16 b[8]={114,263,0,2,0,0,0,0};
 1070 00ba 10AE     		add	r6, sp, #64	@ tmp177,,
 1071              	@ main.c:378: 		s16 a[8]={342,336,0,2,0,0,0,0};
 1072 00bc 85E80F00 		stm	r5, {r0, r1, r2, r3}	@ tmp174,,,,
 1073              	@ main.c:379: 		s16 b[8]={114,263,0,2,0,0,0,0};
 1074 00c0 94E80F00 		ldm	r4, {r0, r1, r2, r3}	@ tmp178,,,,
 1075 00c4 86E80F00 		stm	r6, {r0, r1, r2, r3}	@ tmp177,,,,
 1076              	@ main.c:381: 		liontrend(v,c);
 1077 00c8 6146     		mov	r1, ip	@, tmp171
 1078 00ca 3846     		mov	r0, r7	@, tmp168
 1079 00cc FFF7FEFF 		bl	liontrend	@
 1080              	@ main.c:382: 		liontrend(a,b);
 1081 00d0 3146     		mov	r1, r6	@, tmp177
 1082 00d2 2846     		mov	r0, r5	@, tmp174
 1083 00d4 FFF7FEFF 		bl	liontrend	@
ARM GAS  /tmp/ccDfNsWv.s 			page 20


 1084              	.L72:
 1085 00d8 FEE7     		b	.L72	@
 1086              	.L75:
 1087 00da 00BF     		.align	2
 1088              	.L74:
 1089 00dc 00100240 		.word	1073876992
 1090 00e0 00080140 		.word	1073809408
 1091 00e4 00380140 		.word	1073821696
 1092 00e8 00E100E0 		.word	-536813312
 1093 00ec B4812142 		.word	1109492148
 1094 00f0 B8812142 		.word	1109492152
 1095 00f4 00000000 		.word	PutChar
 1096 00f8 00000000 		.word	UART1_putc
 1097 00fc 00000000 		.word	.LC10
 1098 0100 00A24A04 		.word	72000000
 1099 0104 00000000 		.word	.LANCHOR1
 1100 0108 0C000000 		.word	.LC11
 1101 010c B0812142 		.word	1109492144
 1102              		.size	oblicz, .-oblicz
 1103              		.section	.text.lion_updown,"ax",%progbits
 1104              		.align	1
 1105              		.p2align 2,,3
 1106              		.global	lion_updown
 1107              		.syntax unified
 1108              		.thumb
 1109              		.thumb_func
 1110              		.fpu softvfp
 1111              		.type	lion_updown, %function
 1112              	lion_updown:
 1113              		@ args = 0, pretend = 0, frame = 32
 1114              		@ frame_needed = 0, uses_anonymous_args = 0
 1115 0000 2DE9F04F 		push	{r4, r5, r6, r7, r8, r9, r10, fp, lr}	@
 1116 0004 89B0     		sub	sp, sp, #36	@,,
 1117              	@ main.c:395: 		BkpRegInit();
 1118 0006 FFF7FEFF 		bl	BkpRegInit	@
 1119              	@ main.c:5356: 	USART1->CR1 |= (USART_CR1_UE |USART_CR1_TE | USART_CR1_RE	|USART_CR1_RXNEIE);
 1120 000a 42F22C02 		movw	r2, #8236	@ tmp237,
 1121              	@ ./inc/core_cm3.h:1504:   NVIC->ISER[((uint32_t)(IRQn) >> 5)] = (1 << ((uint32_t)(IRQn) & 0x1F)); 
 1122 000e 4FF0200E 		mov	lr, #32	@ tmp245,
 1123              	@ main.c:5357: 	USART1->BRR = (F_CPU+UART1_SPEED/2)/UART1_SPEED;
 1124 0012 40F27128 		movw	r8, #625	@ tmp243,
 1125              	@ main.c:5364: 	USART2->BRR = ((F_CPU+UART2_SPEED/2)/UART2_SPEED)/2;
 1126 0016 4FF49C76 		mov	r6, #312	@ tmp261,
 1127              	@ ./inc/core_cm3.h:1504:   NVIC->ISER[((uint32_t)(IRQn) >> 5)] = (1 << ((uint32_t)(IRQn) & 0x1F)); 
 1128 001a 4025     		movs	r5, #64	@ tmp263,
 1129              	@ main.c:5354: 	RCC->APB2ENR |= RCC_APB2ENR_USART1EN;
 1130 001c DFF800C3 		ldr	ip, .L102+92	@ tmp228,
 1131              	@ main.c:5355: 	GPIOA->CRH = (GPIOA->CRH & 0xfffff00f) | 0x00000490; // PA9=TX, PA10=RX
 1132 0020 A848     		ldr	r0, .L102	@ tmp230,
 1133              	@ main.c:5354: 	RCC->APB2ENR |= RCC_APB2ENR_USART1EN;
 1134 0022 DCF81830 		ldr	r3, [ip, #24]	@ _203, MEM[(struct RCC_TypeDef *)1073876992B].APB2ENR
 1135              	@ main.c:5356: 	USART1->CR1 |= (USART_CR1_UE |USART_CR1_TE | USART_CR1_RE	|USART_CR1_RXNEIE);
 1136 0026 A84C     		ldr	r4, .L102+4	@ tmp233,
 1137              	@ main.c:5354: 	RCC->APB2ENR |= RCC_APB2ENR_USART1EN;
 1138 0028 43F48043 		orr	r3, r3, #16384	@ _204, _203,
 1139 002c CCF81830 		str	r3, [ip, #24]	@ _204, MEM[(struct RCC_TypeDef *)1073876992B].APB2ENR
 1140              	@ main.c:5355: 	GPIOA->CRH = (GPIOA->CRH & 0xfffff00f) | 0x00000490; // PA9=TX, PA10=RX
ARM GAS  /tmp/ccDfNsWv.s 			page 21


 1141 0030 4368     		ldr	r3, [r0, #4]	@ _205, MEM[(struct GPIO_TypeDef *)1073809408B].CRH
 1142              	@ ./inc/core_cm3.h:1504:   NVIC->ISER[((uint32_t)(IRQn) >> 5)] = (1 << ((uint32_t)(IRQn) & 0x1F)); 
 1143 0032 A649     		ldr	r1, .L102+8	@ tmp244,
 1144              	@ main.c:5355: 	GPIOA->CRH = (GPIOA->CRH & 0xfffff00f) | 0x00000490; // PA9=TX, PA10=RX
 1145 0034 23F47F63 		bic	r3, r3, #4080	@ tmp231, _205,
 1146 0038 43F49263 		orr	r3, r3, #1168	@ _207, tmp231,
 1147 003c 4360     		str	r3, [r0, #4]	@ _207, MEM[(struct GPIO_TypeDef *)1073809408B].CRH
 1148              	@ main.c:5356: 	USART1->CR1 |= (USART_CR1_UE |USART_CR1_TE | USART_CR1_RE	|USART_CR1_RXNEIE);
 1149 003e A389     		ldrh	r3, [r4, #12]	@, MEM[(struct USART_TypeDef *)1073821696B].CR1
 1150              	@ main.c:5363: 	USART2->CR1 |= (USART_CR1_UE |USART_CR1_TE | USART_CR1_RE	|USART_CR1_RXNEIE);
 1151 0040 A34F     		ldr	r7, .L102+12	@ tmp251,
 1152              	@ main.c:5356: 	USART1->CR1 |= (USART_CR1_UE |USART_CR1_TE | USART_CR1_RE	|USART_CR1_RXNEIE);
 1153 0042 1343     		orrs	r3, r3, r2	@, _209, MEM[(struct USART_TypeDef *)1073821696B].CR1, tmp237
 1154 0044 A381     		strh	r3, [r4, #12]	@ movhi	@ _209, MEM[(struct USART_TypeDef *)1073821696B].CR1
 1155              	@ main.c:5357: 	USART1->BRR = (F_CPU+UART1_SPEED/2)/UART1_SPEED;
 1156 0046 A4F80880 		strh	r8, [r4, #8]	@ movhi	@ tmp243, MEM[(struct USART_TypeDef *)1073821696B].BRR
 1157              	@ ./inc/core_cm3.h:1504:   NVIC->ISER[((uint32_t)(IRQn) >> 5)] = (1 << ((uint32_t)(IRQn) & 0x1F)); 
 1158 004a C1F804E0 		str	lr, [r1, #4]	@ tmp245, MEM[(struct NVIC_Type *)3758153984B].ISER
 1159              	@ main.c:5361: 	RCC->APB1ENR |= RCC_APB1ENR_USART2EN;
 1160 004e DCF81C30 		ldr	r3, [ip, #28]	@ _196, MEM[(struct RCC_TypeDef *)1073876992B].APB1ENR
 1161 0052 DFF8D092 		ldr	r9, .L102+96	@ tmp510,
 1162 0056 43F40033 		orr	r3, r3, #131072	@ _197, _196,
 1163 005a CCF81C30 		str	r3, [ip, #28]	@ _197, MEM[(struct RCC_TypeDef *)1073876992B].APB1ENR
 1164              	@ main.c:5362: 	GPIOA->CRL = (GPIOA->CRL & 0xffff00ff) | 0x00004900; // PA2=TX, PA3=RX 
 1165 005e 0368     		ldr	r3, [r0]	@ _198, MEM[(struct GPIO_TypeDef *)1073809408B].CRL
 1166 0060 DFF8C482 		ldr	r8, .L102+100	@ tmp503,
 1167 0064 23F47F43 		bic	r3, r3, #65280	@ tmp249, _198,
 1168 0068 43F49243 		orr	r3, r3, #18688	@ _200, tmp249,
 1169 006c 0360     		str	r3, [r0]	@ _200, MEM[(struct GPIO_TypeDef *)1073809408B].CRL
 1170              	@ main.c:5363: 	USART2->CR1 |= (USART_CR1_UE |USART_CR1_TE | USART_CR1_RE	|USART_CR1_RXNEIE);
 1171 006e BB89     		ldrh	r3, [r7, #12]	@, MEM[(struct USART_TypeDef *)1073759232B].CR1
 1172              	@ main.c:404: 		PutChar = UART1_putc;	tr_pen_color ( TYELLOW );
 1173 0070 0320     		movs	r0, #3	@,
 1174              	@ main.c:5363: 	USART2->CR1 |= (USART_CR1_UE |USART_CR1_TE | USART_CR1_RE	|USART_CR1_RXNEIE);
 1175 0072 1A43     		orrs	r2, r2, r3	@, _202, tmp237, MEM[(struct USART_TypeDef *)1073759232B].CR1
 1176 0074 BA81     		strh	r2, [r7, #12]	@ movhi	@ _202, MEM[(struct USART_TypeDef *)1073759232B].CR1
 1177              	@ main.c:404: 		PutChar = UART1_putc;	tr_pen_color ( TYELLOW );
 1178 0076 974B     		ldr	r3, .L102+16	@ tmp522,
 1179 0078 974A     		ldr	r2, .L102+20	@ tmp523,
 1180              	@ main.c:5364: 	USART2->BRR = ((F_CPU+UART2_SPEED/2)/UART2_SPEED)/2;
 1181 007a 3E81     		strh	r6, [r7, #8]	@ movhi	@ tmp261, MEM[(struct USART_TypeDef *)1073759232B].BRR
 1182              	@ ./inc/core_cm3.h:1504:   NVIC->ISER[((uint32_t)(IRQn) >> 5)] = (1 << ((uint32_t)(IRQn) & 0x1F)); 
 1183 007c 4D60     		str	r5, [r1, #4]	@ tmp263, MEM[(struct NVIC_Type *)3758153984B].ISER
 1184              	@ main.c:404: 		PutChar = UART1_putc;	tr_pen_color ( TYELLOW );
 1185 007e 1A60     		str	r2, [r3]	@ tmp523, PutChar
 1186 0080 FFF7FEFF 		bl	tr_pen_color	@
 1187              	@ main.c:405: 		UaPutS("\f UART1 "); UaPutS (uint2str( (F_CPU/1)/(1*USART1->BRR-1),buf));	
 1188 0084 9548     		ldr	r0, .L102+24	@,
 1189 0086 FFF7FEFF 		bl	UaPutS	@
 1190 008a 2389     		ldrh	r3, [r4, #8]	@, MEM[(struct USART_TypeDef *)1073821696B].BRR
 1191 008c 9448     		ldr	r0, .L102+28	@ tmp274,
 1192 008e 013B     		subs	r3, r3, #1	@ tmp271, MEM[(struct USART_TypeDef *)1073821696B].BRR,
 1193 0090 B0FBF3F0 		udiv	r0, r0, r3	@, tmp274, tmp271
 1194 0094 05A9     		add	r1, sp, #20	@,,
 1195 0096 FFF7FEFF 		bl	uint2str	@
 1196 009a FFF7FEFF 		bl	UaPutS	@
 1197              	@ main.c:406: 		UaPutS (" b/s \r\n");
ARM GAS  /tmp/ccDfNsWv.s 			page 22


 1198 009e 9148     		ldr	r0, .L102+32	@,
 1199 00a0 FFF7FEFF 		bl	UaPutS	@
 1200              	@ main.c:428: 		i2weg[0]=0;    // Register
 1201 00a4 4FF4F854 		mov	r4, #7936	@ tmp277,
 1202              	@ main.c:426: 		i2c1r_init();
 1203 00a8 FFF7FEFF 		bl	i2c1r_init	@
 1204              	@ main.c:429: 		i2weg[1]=0x1f; // MSB Data
 1205 00ac 7723     		movs	r3, #119	@ tmp278,
 1206              	@ main.c:431: 		i2c1_write(INA219_ADDR,i2weg,3);
 1207 00ae 04A9     		add	r1, sp, #16	@ tmp524,,
 1208 00b0 0322     		movs	r2, #3	@,
 1209 00b2 8020     		movs	r0, #128	@,
 1210              	@ main.c:428: 		i2weg[0]=0;    // Register
 1211 00b4 ADF81040 		strh	r4, [sp, #16]	@ movhi	@ tmp277, MEM[(u08[3] *)&i2weg]
 1212              	@ main.c:429: 		i2weg[1]=0x1f; // MSB Data
 1213 00b8 8DF81230 		strb	r3, [sp, #18]	@ tmp278, MEM[(u08[3] *)&i2weg + 2B]
 1214              	@ main.c:433: 		i2weg[0]=5;    // Register
 1215 00bc 40F20514 		movw	r4, #261	@ tmp282,
 1216              	@ main.c:431: 		i2c1_write(INA219_ADDR,i2weg,3);
 1217 00c0 FFF7FEFF 		bl	i2c1_write	@
 1218              	@ main.c:434: 		i2weg[1]=0x1; // MSB Data
 1219 00c4 9523     		movs	r3, #149	@ tmp283,
 1220              	@ main.c:436: 		i2c1_write(INA219_ADDR,i2weg,3);
 1221 00c6 04A9     		add	r1, sp, #16	@ tmp525,,
 1222 00c8 0322     		movs	r2, #3	@,
 1223 00ca 8020     		movs	r0, #128	@,
 1224              	@ main.c:433: 		i2weg[0]=5;    // Register
 1225 00cc ADF81040 		strh	r4, [sp, #16]	@ movhi	@ tmp282, MEM[(u08[3] *)&i2weg]
 1226              	@ main.c:434: 		i2weg[1]=0x1; // MSB Data
 1227 00d0 8DF81230 		strb	r3, [sp, #18]	@ tmp283, MEM[(u08[3] *)&i2weg + 2B]
 1228              	@ main.c:436: 		i2c1_write(INA219_ADDR,i2weg,3);
 1229 00d4 FFF7FEFF 		bl	i2c1_write	@
 1230              	@ main.c:438: 		i2c1_read (INA219_ADDR,0,i2reg,2);
 1231 00d8 03AA     		add	r2, sp, #12	@ tmp526,,
 1232 00da 0223     		movs	r3, #2	@,
 1233 00dc 0021     		movs	r1, #0	@,
 1234 00de 8020     		movs	r0, #128	@,
 1235 00e0 FFF7FEFF 		bl	i2c1_read	@
 1236              	@ main.c:445: 		PB12_o = 0;		// rozladowanie
 1237 00e4 0022     		movs	r2, #0	@ tmp293,
 1238              	@ main.c:447: 		PB14_o = 1;   // dzwonek
 1239 00e6 0120     		movs	r0, #1	@ tmp297,
 1240              	@ main.c:443: 		GPIOB->CRH = (GPIOB->CRH & 0xf000ffff) | 0x05550000;
 1241 00e8 7F4D     		ldr	r5, .L102+36	@ tmp287,
 1242              	@ main.c:447: 		PB14_o = 1;   // dzwonek
 1243 00ea 8049     		ldr	r1, .L102+40	@ tmp296,
 1244              	@ main.c:443: 		GPIOB->CRH = (GPIOB->CRH & 0xf000ffff) | 0x05550000;
 1245 00ec 6B68     		ldr	r3, [r5, #4]	@ _7, MEM[(struct GPIO_TypeDef *)1073810432B].CRH
 1246              	@ main.c:445: 		PB12_o = 0;		// rozladowanie
 1247 00ee 804F     		ldr	r7, .L102+44	@ tmp292,
 1248              	@ main.c:443: 		GPIOB->CRH = (GPIOB->CRH & 0xf000ffff) | 0x05550000;
 1249 00f0 23F07F63 		bic	r3, r3, #267386880	@ tmp288, _7,
 1250 00f4 23F47023 		bic	r3, r3, #983040	@ tmp288, tmp288,
 1251              	@ main.c:446: 		PB13_o = 0;   // ladowanie
 1252 00f8 DFF80CC2 		ldr	ip, .L102+68	@ tmp294,
 1253              	@ main.c:443: 		GPIOB->CRH = (GPIOB->CRH & 0xf000ffff) | 0x05550000;
 1254 00fc 43F0AA63 		orr	r3, r3, #89128960	@ _9, tmp288,
ARM GAS  /tmp/ccDfNsWv.s 			page 23


 1255 0100 43F4A023 		orr	r3, r3, #327680	@ _9, _9,
 1256              	@ main.c:451: 		cap = (BKP->DR2<<16) + BKP->DR1;
 1257 0104 DFF80CE2 		ldr	lr, .L102+80	@ tmp298,
 1258              	@ main.c:470: 		PB13_o = 0;		PB12_o = 1;		beep=0; PB14_o = 1; // AP
 1259 0108 0192     		str	r2, [sp, #4]	@ tmp293, %sfp
 1260              	@ main.c:443: 		GPIOB->CRH = (GPIOB->CRH & 0xf000ffff) | 0x05550000;
 1261 010a 6B60     		str	r3, [r5, #4]	@ _9, MEM[(struct GPIO_TypeDef *)1073810432B].CRH
 1262              	@ main.c:445: 		PB12_o = 0;		// rozladowanie
 1263 010c 3A60     		str	r2, [r7]	@ tmp293, MEM[(volatile long unsigned int *)1109492144B]
 1264              	@ main.c:446: 		PB13_o = 0;   // ladowanie
 1265 010e CCF80020 		str	r2, [ip]	@ tmp293, MEM[(volatile long unsigned int *)1109492148B]
 1266              	@ main.c:447: 		PB14_o = 1;   // dzwonek
 1267 0112 0860     		str	r0, [r1]	@ tmp297, MEM[(volatile long unsigned int *)1109492152B]
 1268              	@ main.c:451: 		cap = (BKP->DR2<<16) + BKP->DR1;
 1269 0114 BEF80830 		ldrh	r3, [lr, #8]	@, MEM[(struct BKP_TypeDef *)1073769472B].DR2
 1270 0118 BEF804E0 		ldrh	lr, [lr, #4]	@, MEM[(struct BKP_TypeDef *)1073769472B].DR1
 1271 011c 754D     		ldr	r5, .L102+48	@ tmp500,
 1272              	@ main.c:471: 		trg1  = SysTick->VAL;	
 1273 011e 764E     		ldr	r6, .L102+52	@ tmp313,
 1274              	@ main.c:451: 		cap = (BKP->DR2<<16) + BKP->DR1;
 1275 0120 0EEB0343 		add	r3, lr, r3, lsl #16	@ tmp306, MEM[(struct BKP_TypeDef *)1073769472B].DR1, MEM[(struct BKP_Type
 1276 0124 2B60     		str	r3, [r5]	@ tmp306, cap
 1277              	@ main.c:470: 		PB13_o = 0;		PB12_o = 1;		beep=0; PB14_o = 1; // AP
 1278 0126 CCF80020 		str	r2, [ip]	@ tmp293, MEM[(volatile long unsigned int *)1109492148B]
 1279 012a 3860     		str	r0, [r7]	@ tmp297, MEM[(volatile long unsigned int *)1109492144B]
 1280 012c 0860     		str	r0, [r1]	@ tmp297, MEM[(volatile long unsigned int *)1109492152B]
 1281              	@ main.c:471: 		trg1  = SysTick->VAL;	
 1282 012e B368     		ldr	r3, [r6, #8]	@ _17, MEM[(struct SysTick_Type *)3758153744B].VAL
 1283              	@ main.c:473: 			if(STCLK_MS*1000 < (trg0 - SysTick->VAL)){
 1284 0130 3446     		mov	r4, r6	@ tmp316, tmp313
 1285              	@ main.c:471: 		trg1  = SysTick->VAL;	
 1286 0132 724E     		ldr	r6, .L102+56	@ tmp511,
 1287 0134 DFF8F4A1 		ldr	r10, .L102+104	@ tmp507,
 1288 0138 DFF8F4B1 		ldr	fp, .L102+108	@ tmp509,
 1289 013c 3360     		str	r3, [r6]	@ _17, trg1
 1290              	.L91:
 1291              	@ main.c:473: 			if(STCLK_MS*1000 < (trg0 - SysTick->VAL)){
 1292 013e D9F80030 		ldr	r3, [r9]	@ trg0.6_18, trg0
 1293 0142 A268     		ldr	r2, [r4, #8]	@ _19, MEM[(struct SysTick_Type *)3758153744B].VAL
 1294 0144 9B1A     		subs	r3, r3, r2	@ tmp317, trg0.6_18, _19
 1295 0146 6E4A     		ldr	r2, .L102+60	@ tmp527,
 1296 0148 9342     		cmp	r3, r2	@ tmp317, tmp527
 1297 014a 00F2F380 		bhi	.L101	@,
 1298              	.L77:
 1299              	@ main.c:511: 			if( (STCLK_MS*5000 < (trg1 - SysTick->VAL)) ){	
 1300 014e 3368     		ldr	r3, [r6]	@ trg1.28_82, trg1
 1301 0150 A268     		ldr	r2, [r4, #8]	@ _83, MEM[(struct SysTick_Type *)3758153744B].VAL
 1302 0152 9B1A     		subs	r3, r3, r2	@ tmp419, trg1.28_82, _83
 1303 0154 6B4A     		ldr	r2, .L102+64	@ tmp546,
 1304 0156 9342     		cmp	r3, r2	@ tmp419, tmp546
 1305 0158 40F29880 		bls	.L79	@,
 1306              	@ main.c:513: 				if(vacu > 2000 && vacu < 2750){
 1307 015c 6FF4FA63 		mvn	r3, #2000	@,
 1308 0160 B8F90020 		ldrsh	r2, [r8]	@ vacu.29_86, vacu
 1309              	@ main.c:512: 				trg1  = SysTick->VAL;	
 1310 0164 A168     		ldr	r1, [r4, #8]	@ _85, MEM[(struct SysTick_Type *)3758153744B].VAL
 1311              	@ main.c:513: 				if(vacu > 2000 && vacu < 2750){
ARM GAS  /tmp/ccDfNsWv.s 			page 24


 1312 0166 D318     		adds	r3, r2, r3	@ tmp425, vacu.29_86,
 1313 0168 9BB2     		uxth	r3, r3	@ tmp426, tmp425
 1314 016a B3F53B7F 		cmp	r3, #748	@ tmp426,
 1315              	@ main.c:512: 				trg1  = SysTick->VAL;	
 1316 016e 3160     		str	r1, [r6]	@ _85, trg1
 1317              	@ main.c:513: 				if(vacu > 2000 && vacu < 2750){
 1318 0170 79D8     		bhi	.L80	@,
 1319              	@ main.c:514: 					PB12_o = 0;
 1320 0172 0023     		movs	r3, #0	@ tmp428,
 1321 0174 5E49     		ldr	r1, .L102+44	@ tmp427,
 1322              	@ main.c:515: 					PB13_o = 0;
 1323 0176 644A     		ldr	r2, .L102+68	@ tmp429,
 1324              	@ main.c:514: 					PB12_o = 0;
 1325 0178 0B60     		str	r3, [r1]	@ tmp428, MEM[(volatile long unsigned int *)1109492144B]
 1326              	@ main.c:515: 					PB13_o = 0;
 1327 017a 1360     		str	r3, [r2]	@ tmp428, MEM[(volatile long unsigned int *)1109492148B]
 1328              	@ main.c:528: 			if( (STCLK_MS*500   < (trg2 - SysTick->VAL))) {
 1329 017c 634B     		ldr	r3, .L102+72	@ tmp576,
 1330 017e 644A     		ldr	r2, .L102+76	@ tmp434,
 1331 0180 1B68     		ldr	r3, [r3]	@ trg2.33_221, trg2
 1332 0182 A168     		ldr	r1, [r4, #8]	@ _226, MEM[(struct SysTick_Type *)3758153744B].VAL
 1333 0184 5B1A     		subs	r3, r3, r1	@ tmp433, trg2.33_221, _226
 1334 0186 9342     		cmp	r3, r2	@ tmp433, tmp434
 1335 0188 00F28781 		bhi	.L81	@,
 1336              	@ main.c:516: 					beep=1;
 1337 018c 0123     		movs	r3, #1	@ beep,
 1338 018e 0193     		str	r3, [sp, #4]	@ beep, %sfp
 1339              	.L82:
 1340              	@ main.c:537: 			if(p_Fifo1->rct){
 1341 0190 DBF80030 		ldr	r3, [fp]	@ p_Fifo1.34_98, p_Fifo1
 1342 0194 9B88     		ldrh	r3, [r3, #4]	@, p_Fifo1.34_98->rct
 1343 0196 9BB2     		uxth	r3, r3	@ _99, p_Fifo1.34_98->rct
 1344 0198 002B     		cmp	r3, #0	@ _99
 1345 019a D0D0     		beq	.L91	@
 1346              	@ main.c:538: 				UART_getChar( (char*)&swh);
 1347 019c 0DF10B00 		add	r0, sp, #11	@ tmp555,,
 1348 01a0 FFF7FEFF 		bl	UART_getChar	@
 1349              	@ main.c:541: 				switch (swh)	{
 1350 01a4 9DF80B30 		ldrb	r3, [sp, #11]	@ zero_extendqisi2	@ swh, swh
 1351 01a8 613B     		subs	r3, r3, #97	@ tmp465, swh,
 1352 01aa 192B     		cmp	r3, #25	@ tmp465,
 1353 01ac C7D8     		bhi	.L91	@
 1354 01ae 01A2     		adr	r2, .L86	@ tmp521,
 1355 01b0 52F823F0 		ldr	pc, [r2, r3, lsl #2]	@ tmp521, tmp465
 1356              		.p2align 2
 1357              	.L86:
 1358 01b4 51020000 		.word	.L85+1
 1359 01b8 43020000 		.word	.L87+1
 1360 01bc 3F010000 		.word	.L91+1
 1361 01c0 2F020000 		.word	.L88+1
 1362 01c4 3F010000 		.word	.L91+1
 1363 01c8 3F010000 		.word	.L91+1
 1364 01cc 3F010000 		.word	.L91+1
 1365 01d0 3F010000 		.word	.L91+1
 1366 01d4 3F010000 		.word	.L91+1
 1367 01d8 3F010000 		.word	.L91+1
 1368 01dc 3F010000 		.word	.L91+1
ARM GAS  /tmp/ccDfNsWv.s 			page 25


 1369 01e0 3F010000 		.word	.L91+1
 1370 01e4 3F010000 		.word	.L91+1
 1371 01e8 3F010000 		.word	.L91+1
 1372 01ec 3F010000 		.word	.L91+1
 1373 01f0 3F010000 		.word	.L91+1
 1374 01f4 1D020000 		.word	.L89+1
 1375 01f8 3F010000 		.word	.L91+1
 1376 01fc 3F010000 		.word	.L91+1
 1377 0200 3F010000 		.word	.L91+1
 1378 0204 3F010000 		.word	.L91+1
 1379 0208 3F010000 		.word	.L91+1
 1380 020c 3F010000 		.word	.L91+1
 1381 0210 3F010000 		.word	.L91+1
 1382 0214 3F010000 		.word	.L91+1
 1383 0218 5B020000 		.word	.L90+1
 1384              		.p2align 1
 1385              	.L89:
 1386              	@ main.c:563: 					PB13_o = 0;
 1387 021c 0023     		movs	r3, #0	@ tmp487,
 1388              	@ main.c:565: 					PB14_o = 1;
 1389 021e 0122     		movs	r2, #1	@ tmp491,
 1390              	@ main.c:563: 					PB13_o = 0;
 1391 0220 3948     		ldr	r0, .L102+68	@ tmp486,
 1392              	@ main.c:564: 					PB12_o = 0;
 1393 0222 3349     		ldr	r1, .L102+44	@ tmp488,
 1394              	@ main.c:563: 					PB13_o = 0;
 1395 0224 0360     		str	r3, [r0]	@ tmp487, MEM[(volatile long unsigned int *)1109492148B]
 1396              	@ main.c:564: 					PB12_o = 0;
 1397 0226 0B60     		str	r3, [r1]	@ tmp487, MEM[(volatile long unsigned int *)1109492144B]
 1398              	@ main.c:565: 					PB14_o = 1;
 1399 0228 304B     		ldr	r3, .L102+40	@ tmp558,
 1400 022a 1A60     		str	r2, [r3]	@ tmp491, MEM[(volatile long unsigned int *)1109492152B]
 1401              	@ main.c:566: 					break;
 1402 022c 87E7     		b	.L91	@
 1403              	.L88:
 1404              	@ main.c:558: 					PB13_o = 0;
 1405 022e 0022     		movs	r2, #0	@ tmp481,
 1406              	@ main.c:559: 					PB12_o = 1;
 1407 0230 0123     		movs	r3, #1	@ tmp483,
 1408              	@ main.c:558: 					PB13_o = 0;
 1409 0232 3548     		ldr	r0, .L102+68	@ tmp480,
 1410              	@ main.c:559: 					PB12_o = 1;
 1411 0234 2E49     		ldr	r1, .L102+44	@ tmp482,
 1412              	.L100:
 1413              	@ main.c:558: 					PB13_o = 0;
 1414 0236 0260     		str	r2, [r0]	@ tmp481,
 1415              	@ main.c:560: 					beep=0; PB14_o = 1;
 1416 0238 0192     		str	r2, [sp, #4]	@ tmp481, %sfp
 1417 023a 2C4A     		ldr	r2, .L102+40	@ tmp557,
 1418              	@ main.c:559: 					PB12_o = 1;
 1419 023c 0B60     		str	r3, [r1]	@ tmp483,
 1420              	@ main.c:560: 					beep=0; PB14_o = 1;
 1421 023e 1360     		str	r3, [r2]	@ tmp483,
 1422              	@ main.c:561: 					break;
 1423 0240 7DE7     		b	.L91	@
 1424              	.L87:
 1425              	@ main.c:570: 					PB14_o = 1;
ARM GAS  /tmp/ccDfNsWv.s 			page 26


 1426 0242 0123     		movs	r3, #1	@ tmp494,
 1427              	@ main.c:569: 					beep  ^= 1;
 1428 0244 019A     		ldr	r2, [sp, #4]	@ beep, %sfp
 1429 0246 5A40     		eors	r2, r2, r3	@, beep, beep,
 1430 0248 0192     		str	r2, [sp, #4]	@ beep, %sfp
 1431              	@ main.c:570: 					PB14_o = 1;
 1432 024a 284A     		ldr	r2, .L102+40	@ tmp563,
 1433 024c 1360     		str	r3, [r2]	@ tmp494,
 1434              	@ main.c:472: 		while(1){
 1435 024e 76E7     		b	.L91	@
 1436              	.L85:
 1437              	@ main.c:553: 					PB12_o = 0;
 1438 0250 0022     		movs	r2, #0	@ tmp475,
 1439              	@ main.c:554: 					PB13_o = 1;
 1440 0252 0123     		movs	r3, #1	@ tmp477,
 1441              	@ main.c:553: 					PB12_o = 0;
 1442 0254 2648     		ldr	r0, .L102+44	@ tmp474,
 1443              	@ main.c:554: 					PB13_o = 1;
 1444 0256 2C49     		ldr	r1, .L102+68	@ tmp476,
 1445 0258 EDE7     		b	.L100	@
 1446              	.L90:
 1447              	@ main.c:544: 					cap = 0;
 1448 025a 0023     		movs	r3, #0	@ tmp467,
 1449              	@ main.c:545: 					BKP->DR1 = 0;
 1450 025c 2D4A     		ldr	r2, .L102+80	@ tmp468,
 1451              	@ main.c:544: 					cap = 0;
 1452 025e 2B60     		str	r3, [r5]	@ tmp467, cap
 1453              	@ main.c:545: 					BKP->DR1 = 0;
 1454 0260 9380     		strh	r3, [r2, #4]	@ movhi	@ tmp467, MEM[(struct BKP_TypeDef *)1073769472B].DR1
 1455              	@ main.c:546: 					BKP->DR2 = 0;
 1456 0262 1381     		strh	r3, [r2, #8]	@ movhi	@ tmp467, MEM[(struct BKP_TypeDef *)1073769472B].DR2
 1457              	@ main.c:551: 					break;
 1458 0264 6BE7     		b	.L91	@
 1459              	.L80:
 1460              	@ main.c:519: 				if(vacu > 4190 && cur < 100){
 1461 0266 41F25E03 		movw	r3, #4190	@ tmp435,
 1462 026a 9A42     		cmp	r2, r3	@ vacu.29_86, tmp435
 1463 026c 0EDD     		ble	.L79	@,
 1464              	@ main.c:519: 				if(vacu > 4190 && cur < 100){
 1465 026e 2A4B     		ldr	r3, .L102+84	@ tmp549,
 1466 0270 B3F90030 		ldrsh	r3, [r3]	@ cur, cur
 1467 0274 632B     		cmp	r3, #99	@ cur,
 1468 0276 09DC     		bgt	.L79	@,
 1469              	@ main.c:520: 					PB13_o = 0;
 1470 0278 0023     		movs	r3, #0	@ tmp439,
 1471              	@ main.c:521: 					PB12_o = 1;
 1472 027a 0120     		movs	r0, #1	@ tmp441,
 1473              	@ main.c:520: 					PB13_o = 0;
 1474 027c 224A     		ldr	r2, .L102+68	@ tmp438,
 1475              	@ main.c:521: 					PB12_o = 1;
 1476 027e 1C49     		ldr	r1, .L102+44	@ tmp440,
 1477              	@ main.c:520: 					PB13_o = 0;
 1478 0280 1360     		str	r3, [r2]	@ tmp439, MEM[(volatile long unsigned int *)1109492148B]
 1479              	@ main.c:523: 					BKP->DR1 = 0;
 1480 0282 244A     		ldr	r2, .L102+80	@ tmp444,
 1481              	@ main.c:521: 					PB12_o = 1;
 1482 0284 0860     		str	r0, [r1]	@ tmp441, MEM[(volatile long unsigned int *)1109492144B]
ARM GAS  /tmp/ccDfNsWv.s 			page 27


 1483              	@ main.c:522: 					cap = 0;
 1484 0286 2B60     		str	r3, [r5]	@ tmp439, cap
 1485              	@ main.c:523: 					BKP->DR1 = 0;
 1486 0288 9380     		strh	r3, [r2, #4]	@ movhi	@ tmp439, MEM[(struct BKP_TypeDef *)1073769472B].DR1
 1487              	@ main.c:524: 					BKP->DR2 = 0;
 1488 028a 1381     		strh	r3, [r2, #8]	@ movhi	@ tmp439, MEM[(struct BKP_TypeDef *)1073769472B].DR2
 1489              	.L79:
 1490              	@ main.c:528: 			if( (STCLK_MS*500   < (trg2 - SysTick->VAL))) {
 1491 028c 1F48     		ldr	r0, .L102+72	@ tmp575,
 1492 028e 204A     		ldr	r2, .L102+76	@ tmp453,
 1493 0290 0368     		ldr	r3, [r0]	@ trg2.33_90, trg2
 1494 0292 A168     		ldr	r1, [r4, #8]	@ _91, MEM[(struct SysTick_Type *)3758153744B].VAL
 1495 0294 5B1A     		subs	r3, r3, r1	@ tmp452, trg2.33_90, _91
 1496 0296 9342     		cmp	r3, r2	@ tmp452, tmp453
 1497 0298 7FF67AAF 		bls	.L82	@,
 1498              	@ main.c:529: 				trg2  = SysTick->VAL;	
 1499 029c A368     		ldr	r3, [r4, #8]	@ _93, MEM[(struct SysTick_Type *)3758153744B].VAL
 1500              	@ main.c:530: 				LED ^= 1;	
 1501 029e 1F4A     		ldr	r2, .L102+88	@ tmp456,
 1502              	@ main.c:529: 				trg2  = SysTick->VAL;	
 1503 02a0 0360     		str	r3, [r0]	@ _93, trg2
 1504              	@ main.c:530: 				LED ^= 1;	
 1505 02a2 1368     		ldr	r3, [r2]	@ _94, MEM[(volatile long unsigned int *)1109524916B]
 1506 02a4 83F00103 		eor	r3, r3, #1	@ _95, _94,
 1507 02a8 1360     		str	r3, [r2]	@ _95, MEM[(volatile long unsigned int *)1109524916B]
 1508              	@ main.c:531: 				if(beep){	PB14_o ^= 1; }
 1509 02aa 019B     		ldr	r3, [sp, #4]	@ beep, %sfp
 1510 02ac 002B     		cmp	r3, #0	@ beep
 1511 02ae 3FF46FAF 		beq	.L82	@
 1512              	.L92:
 1513              	@ main.c:531: 				if(beep){	PB14_o ^= 1; }
 1514 02b2 0123     		movs	r3, #1	@ beep,
 1515 02b4 0D4A     		ldr	r2, .L102+40	@ tmp553,
 1516 02b6 0193     		str	r3, [sp, #4]	@ beep, %sfp
 1517 02b8 1368     		ldr	r3, [r2]	@ _96, MEM[(volatile long unsigned int *)1109492152B]
 1518 02ba 83F00103 		eor	r3, r3, #1	@ _97, _96,
 1519 02be 1360     		str	r3, [r2]	@ _97, MEM[(volatile long unsigned int *)1109492152B]
 1520 02c0 66E7     		b	.L82	@
 1521              	.L103:
 1522 02c2 00BF     		.align	2
 1523              	.L102:
 1524 02c4 00080140 		.word	1073809408
 1525 02c8 00380140 		.word	1073821696
 1526 02cc 00E100E0 		.word	-536813312
 1527 02d0 00440040 		.word	1073759232
 1528 02d4 00000000 		.word	PutChar
 1529 02d8 00000000 		.word	UART1_putc
 1530 02dc 00000000 		.word	.LC10
 1531 02e0 00A24A04 		.word	72000000
 1532 02e4 0C000000 		.word	.LC11
 1533 02e8 000C0140 		.word	1073810432
 1534 02ec B8812142 		.word	1109492152
 1535 02f0 B0812142 		.word	1109492144
 1536 02f4 00000000 		.word	.LANCHOR2
 1537 02f8 10E000E0 		.word	-536813552
 1538 02fc 00000000 		.word	trg1
 1539 0300 40548900 		.word	9000000
ARM GAS  /tmp/ccDfNsWv.s 			page 28


 1540 0304 40A5AE02 		.word	45000000
 1541 0308 B4812142 		.word	1109492148
 1542 030c 00000000 		.word	trg2
 1543 0310 20AA4400 		.word	4500000
 1544 0314 006C0040 		.word	1073769472
 1545 0318 00000000 		.word	.LANCHOR4
 1546 031c B4012242 		.word	1109524916
 1547 0320 00100240 		.word	1073876992
 1548 0324 00000000 		.word	trg0
 1549 0328 00000000 		.word	.LANCHOR5
 1550 032c 00000000 		.word	.LANCHOR7
 1551 0330 00000000 		.word	p_Fifo1
 1552              	.L101:
 1553              	@ main.c:478: 				i2c1_read( INA219_ADDR,2,i2reg,2);
 1554 0334 0223     		movs	r3, #2	@,
 1555              	@ main.c:474: 				trg0  = SysTick->VAL;
 1556 0336 D4F808C0 		ldr	ip, [r4, #8]	@ _21, MEM[(struct SysTick_Type *)3758153744B].VAL
 1557              	@ main.c:478: 				i2c1_read( INA219_ADDR,2,i2reg,2);
 1558 033a 1946     		mov	r1, r3	@,
 1559 033c 03AA     		add	r2, sp, #12	@ tmp528,,
 1560 033e 8020     		movs	r0, #128	@,
 1561              	@ main.c:474: 				trg0  = SysTick->VAL;
 1562 0340 C9F800C0 		str	ip, [r9]	@ _21, trg0
 1563              	@ main.c:478: 				i2c1_read( INA219_ADDR,2,i2reg,2);
 1564 0344 FFF7FEFF 		bl	i2c1_read	@
 1565              	@ main.c:479: 				vbus = ((i2reg[1] | (i2reg[0]<<8))>>3)*515/128 ;
 1566 0348 BDF80C20 		ldrh	r2, [sp, #12]	@, MEM[(u08[2] *)&i2reg]
 1567 034c 574F     		ldr	r7, .L104	@ tmp530,
 1568 034e 52BA     		rev16	r2, r2	@ tmp323, MEM[(u08[2] *)&i2reg]
 1569 0350 C2F3CC02 		ubfx	r2, r2, #3, #13	@ tmp326, tmp323,,
 1570 0354 02EB022C 		add	ip, r2, r2, lsl #8	@ tmp329, tmp326, tmp326,
 1571 0358 02EB4C02 		add	r2, r2, ip, lsl #1	@ tmp331, tmp326, tmp329,
 1572 035c 4FEAE21C 		asr	ip, r2, #7	@ tmp332, tmp331,
 1573              	@ main.c:483: 				i2c1_read( INA219_ADDR,4,i2reg,2);
 1574 0360 0223     		movs	r3, #2	@,
 1575 0362 03AA     		add	r2, sp, #12	@ tmp529,,
 1576 0364 0421     		movs	r1, #4	@,
 1577 0366 8020     		movs	r0, #128	@,
 1578              	@ main.c:479: 				vbus = ((i2reg[1] | (i2reg[0]<<8))>>3)*515/128 ;
 1579 0368 A7F800C0 		strh	ip, [r7]	@ movhi	@ tmp332, vbus
 1580              	@ main.c:483: 				i2c1_read( INA219_ADDR,4,i2reg,2);
 1581 036c FFF7FEFF 		bl	i2c1_read	@
 1582              	@ main.c:485: 				vacu = vbus + cur*108/1000;
 1583 0370 6C22     		movs	r2, #108	@ tmp344,
 1584              	@ main.c:484: 				cur = ((i2reg[1]) | (i2reg[0]<<8)) ;
 1585 0372 9DF80C30 		ldrb	r3, [sp, #12]	@ zero_extendqisi2	@ i2reg, i2reg
 1586 0376 9DF80D10 		ldrb	r1, [sp, #13]	@ zero_extendqisi2	@ i2reg, i2reg
 1587              	@ main.c:485: 				vacu = vbus + cur*108/1000;
 1588 037a B7F800C0 		ldrh	ip, [r7]	@, vbus
 1589              	@ main.c:484: 				cur = ((i2reg[1]) | (i2reg[0]<<8)) ;
 1590 037e 41EA0321 		orr	r1, r1, r3, lsl #8	@ tmp340, i2reg, i2reg,
 1591 0382 09B2     		sxth	r1, r1	@ _38, tmp340
 1592              	@ main.c:485: 				vacu = vbus + cur*108/1000;
 1593 0384 02FB01F2 		mul	r2, r2, r1	@ tmp343, tmp344, _38
 1594 0388 494F     		ldr	r7, .L104+4	@ tmp532,
 1595              	@ main.c:487: 				cap += abs(cur);
 1596 038a 81EAE170 		eor	r0, r1, r1, asr #31	@ tmp364, _38, _38,
ARM GAS  /tmp/ccDfNsWv.s 			page 29


 1597              	@ main.c:485: 				vacu = vbus + cur*108/1000;
 1598 038e 87FB023E 		smull	r3, lr, r7, r2	@ tmp517, tmp346, tmp532, tmp343
 1599 0392 D317     		asrs	r3, r2, #31	@ tmp349, tmp343,
 1600 0394 C3EBAE13 		rsb	r3, r3, lr, asr #6	@ tmp345, tmp349, tmp346,
 1601 0398 6344     		add	r3, r3, ip	@ tmp353, vbus
 1602 039a 1BB2     		sxth	r3, r3	@ _46, tmp353
 1603              	@ main.c:486: 				pow = vacu*cur/1000;
 1604 039c 01FB03FC 		mul	ip, r1, r3	@ tmp357, _38, _46
 1605 03a0 87FB0C2E 		smull	r2, lr, r7, ip	@ tmp518, tmp359, tmp533, tmp357
 1606              	@ main.c:487: 				cap += abs(cur);
 1607 03a4 2A68     		ldr	r2, [r5]	@ cap, cap
 1608 03a6 A0EBE170 		sub	r0, r0, r1, asr #31	@ tmp364, tmp364, _38,
 1609              	@ main.c:484: 				cur = ((i2reg[1]) | (i2reg[0]<<8)) ;
 1610 03aa 424F     		ldr	r7, .L104+8	@ tmp534,
 1611              	@ main.c:487: 				cap += abs(cur);
 1612 03ac 1044     		add	r0, r0, r2	@ _54, cap
 1613              	@ main.c:484: 				cur = ((i2reg[1]) | (i2reg[0]<<8)) ;
 1614 03ae 3980     		strh	r1, [r7]	@ movhi	@ _38, cur
 1615              	@ main.c:485: 				vacu = vbus + cur*108/1000;
 1616 03b0 A8F80030 		strh	r3, [r8]	@ movhi	@ _46, vacu
 1617              	@ main.c:487: 				cap += abs(cur);
 1618 03b4 2860     		str	r0, [r5]	@ _54, cap
 1619              	@ main.c:488: 				BKP->DR1 = cap & 0x00ff;
 1620 03b6 404A     		ldr	r2, .L104+12	@ tmp371,
 1621 03b8 C1B2     		uxtb	r1, r0	@ _56, _54
 1622              	@ main.c:489: 				BKP->DR2 = cap>>16;
 1623 03ba 030C     		lsrs	r3, r0, #16	@ _58, _54,
 1624              	@ main.c:486: 				pow = vacu*cur/1000;
 1625 03bc 4FEAEC7C 		asr	ip, ip, #31	@ tmp362, tmp357,
 1626 03c0 3E48     		ldr	r0, .L104+16	@ tmp535,
 1627 03c2 CCEBAE1C 		rsb	ip, ip, lr, asr #6	@ tmp358, tmp362, tmp359,
 1628 03c6 A0F800C0 		strh	ip, [r0]	@ movhi	@ tmp358, pow
 1629              	@ main.c:488: 				BKP->DR1 = cap & 0x00ff;
 1630 03ca 9180     		strh	r1, [r2, #4]	@ movhi	@ _56, MEM[(struct BKP_TypeDef *)1073769472B].DR1
 1631              	@ main.c:489: 				BKP->DR2 = cap>>16;
 1632 03cc 1381     		strh	r3, [r2, #8]	@ movhi	@ _58, MEM[(struct BKP_TypeDef *)1073769472B].DR2
 1633              	@ main.c:494: 				unt2uart (cnt++,3);
 1634 03ce 9AF80000 		ldrb	r0, [r10]	@ zero_extendqisi2	@ cnt.16_59, cnt
 1635              	@ main.c:493: 				PutChar = UART1_putc;
 1636 03d2 3B4A     		ldr	r2, .L104+20	@ tmp536,
 1637 03d4 3B4F     		ldr	r7, .L104+24	@ tmp537,
 1638              	@ main.c:494: 				unt2uart (cnt++,3);
 1639 03d6 431C     		adds	r3, r0, #1	@ tmp380, cnt.16_59,
 1640 03d8 0321     		movs	r1, #3	@,
 1641 03da 8AF80030 		strb	r3, [r10]	@ tmp380, cnt
 1642              	@ main.c:493: 				PutChar = UART1_putc;
 1643 03de 1760     		str	r7, [r2]	@ tmp537, PutChar
 1644              	@ main.c:494: 				unt2uart (cnt++,3);
 1645 03e0 FFF7FEFF 		bl	unt2uart	@
 1646              	@ main.c:496: 				int2uart (cur  ,5,0);				UaPutS("mA");
 1647 03e4 334F     		ldr	r7, .L104+8	@ tmp538,
 1648              	@ main.c:495: 				int2uart (vacu ,4,3);				UaPutS("V");
 1649 03e6 0322     		movs	r2, #3	@,
 1650 03e8 0421     		movs	r1, #4	@,
 1651 03ea B8F90000 		ldrsh	r0, [r8]	@, vacu
 1652 03ee FFF7FEFF 		bl	int2uart	@
 1653 03f2 3548     		ldr	r0, .L104+28	@,
ARM GAS  /tmp/ccDfNsWv.s 			page 30


 1654 03f4 FFF7FEFF 		bl	UaPutS	@
 1655              	@ main.c:496: 				int2uart (cur  ,5,0);				UaPutS("mA");
 1656 03f8 0022     		movs	r2, #0	@,
 1657 03fa 0521     		movs	r1, #5	@,
 1658 03fc B7F90000 		ldrsh	r0, [r7]	@, cur
 1659 0400 FFF7FEFF 		bl	int2uart	@
 1660 0404 3148     		ldr	r0, .L104+32	@,
 1661 0406 FFF7FEFF 		bl	UaPutS	@
 1662              	@ main.c:497: 				int2uart (pow  ,4,3);				UaPutS("W");
 1663 040a 2C48     		ldr	r0, .L104+16	@ tmp539,
 1664 040c 0322     		movs	r2, #3	@,
 1665 040e 0421     		movs	r1, #4	@,
 1666 0410 B0F90000 		ldrsh	r0, [r0]	@, pow
 1667 0414 FFF7FEFF 		bl	int2uart	@
 1668 0418 2D48     		ldr	r0, .L104+36	@,
 1669 041a FFF7FEFF 		bl	UaPutS	@
 1670              	@ main.c:498: 				int2uart (cap/36  ,6,2);	UaPutS("mAh");
 1671 041e 2868     		ldr	r0, [r5]	@ cap, cap
 1672 0420 2C49     		ldr	r1, .L104+40	@ tmp540,
 1673 0422 0222     		movs	r2, #2	@,
 1674 0424 A1FB00C0 		umull	ip, r0, r1, r0	@ tmp519, tmp394, tmp540, cap
 1675 0428 0621     		movs	r1, #6	@,
 1676 042a C008     		lsrs	r0, r0, #3	@, tmp394,
 1677 042c FFF7FEFF 		bl	int2uart	@
 1678 0430 2948     		ldr	r0, .L104+44	@,
 1679 0432 FFF7FEFF 		bl	UaPutS	@
 1680              	@ main.c:499: 				UaPutS("\r ");
 1681 0436 2948     		ldr	r0, .L104+48	@,
 1682 0438 FFF7FEFF 		bl	UaPutS	@
 1683              	@ main.c:501: 				PutChar = UART2_putc; //przypisanie callback 
 1684 043c 284F     		ldr	r7, .L104+52	@ tmp542,
 1685 043e 204B     		ldr	r3, .L104+20	@ tmp541,
 1686              	@ main.c:502: 				int2uarz (vacu ,4,3); 			UaPutC(',');
 1687 0440 0322     		movs	r2, #3	@,
 1688              	@ main.c:501: 				PutChar = UART2_putc; //przypisanie callback 
 1689 0442 1F60     		str	r7, [r3]	@ tmp542, PutChar
 1690              	@ main.c:502: 				int2uarz (vacu ,4,3); 			UaPutC(',');
 1691 0444 0421     		movs	r1, #4	@,
 1692 0446 B8F90000 		ldrsh	r0, [r8]	@, vacu
 1693              	@ main.c:503: 				int2uarz (cur  ,4,3); 			UaPutC(',');
 1694 044a 1A4F     		ldr	r7, .L104+8	@ tmp543,
 1695              	@ main.c:502: 				int2uarz (vacu ,4,3); 			UaPutC(',');
 1696 044c FFF7FEFF 		bl	int2uarz	@
 1697 0450 2C20     		movs	r0, #44	@,
 1698 0452 FFF7FEFF 		bl	UaPutC	@
 1699              	@ main.c:503: 				int2uarz (cur  ,4,3); 			UaPutC(',');
 1700 0456 0322     		movs	r2, #3	@,
 1701 0458 0421     		movs	r1, #4	@,
 1702 045a B7F90000 		ldrsh	r0, [r7]	@, cur
 1703 045e FFF7FEFF 		bl	int2uarz	@
 1704 0462 2C20     		movs	r0, #44	@,
 1705 0464 FFF7FEFF 		bl	UaPutC	@
 1706              	@ main.c:504: 				int2uarz (pow  ,4,3); 			UaPutC(',');
 1707 0468 1448     		ldr	r0, .L104+16	@ tmp544,
 1708 046a 0322     		movs	r2, #3	@,
 1709 046c 0421     		movs	r1, #4	@,
 1710 046e B0F90000 		ldrsh	r0, [r0]	@, pow
ARM GAS  /tmp/ccDfNsWv.s 			page 31


 1711 0472 FFF7FEFF 		bl	int2uarz	@
 1712 0476 2C20     		movs	r0, #44	@,
 1713 0478 FFF7FEFF 		bl	UaPutC	@
 1714              	@ main.c:505: 				int2uarz (cap/36 ,6,5);
 1715 047c 2868     		ldr	r0, [r5]	@ cap, cap
 1716 047e 1549     		ldr	r1, .L104+40	@ tmp545,
 1717 0480 0522     		movs	r2, #5	@,
 1718 0482 A1FB0030 		umull	r3, r0, r1, r0	@ tmp520, tmp409, tmp545, cap
 1719 0486 0621     		movs	r1, #6	@,
 1720 0488 C008     		lsrs	r0, r0, #3	@, tmp409,
 1721 048a FFF7FEFF 		bl	int2uarz	@
 1722              	@ main.c:507: 				cnt++;
 1723 048e 9AF80030 		ldrb	r3, [r10]	@ zero_extendqisi2	@ cnt, cnt
 1724 0492 0133     		adds	r3, r3, #1	@ tmp415, cnt,
 1725 0494 8AF80030 		strb	r3, [r10]	@ tmp415, cnt
 1726 0498 59E6     		b	.L77	@
 1727              	.L81:
 1728              	@ main.c:529: 				trg2  = SysTick->VAL;	
 1729 049a A368     		ldr	r3, [r4, #8]	@ _103, MEM[(struct SysTick_Type *)3758153744B].VAL
 1730 049c 1149     		ldr	r1, .L104+56	@ tmp573,
 1731              	@ main.c:530: 				LED ^= 1;	
 1732 049e 124A     		ldr	r2, .L104+60	@ tmp497,
 1733              	@ main.c:529: 				trg2  = SysTick->VAL;	
 1734 04a0 0B60     		str	r3, [r1]	@ _103, trg2
 1735              	@ main.c:530: 				LED ^= 1;	
 1736 04a2 1368     		ldr	r3, [r2]	@ _224, MEM[(volatile long unsigned int *)1109524916B]
 1737 04a4 83F00103 		eor	r3, r3, #1	@ _108, _224,
 1738 04a8 1360     		str	r3, [r2]	@ _108, MEM[(volatile long unsigned int *)1109524916B]
 1739 04aa 02E7     		b	.L92	@
 1740              	.L105:
 1741              		.align	2
 1742              	.L104:
 1743 04ac 00000000 		.word	.LANCHOR3
 1744 04b0 D34D6210 		.word	274877907
 1745 04b4 00000000 		.word	.LANCHOR4
 1746 04b8 006C0040 		.word	1073769472
 1747 04bc 00000000 		.word	.LANCHOR6
 1748 04c0 00000000 		.word	PutChar
 1749 04c4 00000000 		.word	UART1_putc
 1750 04c8 00000000 		.word	.LC23
 1751 04cc 04000000 		.word	.LC24
 1752 04d0 08000000 		.word	.LC25
 1753 04d4 398EE338 		.word	954437177
 1754 04d8 0C000000 		.word	.LC26
 1755 04dc 10000000 		.word	.LC27
 1756 04e0 00000000 		.word	UART2_putc
 1757 04e4 00000000 		.word	trg2
 1758 04e8 B4012242 		.word	1109524916
 1759              		.size	lion_updown, .-lion_updown
 1760              		.section	.text.uht,"ax",%progbits
 1761              		.align	1
 1762              		.p2align 2,,3
 1763              		.global	uht
 1764              		.syntax unified
 1765              		.thumb
 1766              		.thumb_func
 1767              		.fpu softvfp
ARM GAS  /tmp/ccDfNsWv.s 			page 32


 1768              		.type	uht, %function
 1769              	uht:
 1770              		@ args = 0, pretend = 0, frame = 0
 1771              		@ frame_needed = 0, uses_anonymous_args = 0
 1772              		@ link register save eliminated.
 1773              	@ main.c:585: 		GPIOB->CRL = (GPIOB->CRL & 0xffffff0f) | 0x00000060;
 1774 0000 034A     		ldr	r2, .L107	@ tmp113,
 1775 0002 1368     		ldr	r3, [r2]	@ _1, MEM[(struct GPIO_TypeDef *)1073810432B].CRL
 1776 0004 23F0F003 		bic	r3, r3, #240	@ tmp114, _1,
 1777 0008 43F06003 		orr	r3, r3, #96	@ _3, tmp114,
 1778 000c 1360     		str	r3, [r2]	@ _3, MEM[(struct GPIO_TypeDef *)1073810432B].CRL
 1779              	@ main.c:655: 	} 
 1780 000e 7047     		bx	lr	@
 1781              	.L108:
 1782              		.align	2
 1783              	.L107:
 1784 0010 000C0140 		.word	1073810432
 1785              		.size	uht, .-uht
 1786              		.section	.text.rtc_calibrate,"ax",%progbits
 1787              		.align	1
 1788              		.p2align 2,,3
 1789              		.global	rtc_calibrate
 1790              		.syntax unified
 1791              		.thumb
 1792              		.thumb_func
 1793              		.fpu softvfp
 1794              		.type	rtc_calibrate, %function
 1795              	rtc_calibrate:
 1796              		@ args = 0, pretend = 0, frame = 24
 1797              		@ frame_needed = 0, uses_anonymous_args = 0
 1798 0000 2DE9F043 		push	{r4, r5, r6, r7, r8, r9, lr}	@
 1799 0004 87B0     		sub	sp, sp, #28	@,,
 1800              	@ main.c:661: 		RtcInit();
 1801 0006 FFF7FEFF 		bl	RtcInit	@
 1802              	@ main.c:662: 		i2c1_init();
 1803 000a FFF7FEFF 		bl	i2c1_init	@
 1804              	@ main.c:663: 		GPIOA->CRH = (GPIOA->CRH & 0x0ff00fff) | 0x10011000;
 1805 000e 3D48     		ldr	r0, .L132	@ tmp140,
 1806              	@ main.c:664: 		GPIOB->CRL = (GPIOB->CRL & 0xfff00fff) | 0x00011000;
 1807 0010 3D49     		ldr	r1, .L132+4	@ tmp145,
 1808              	@ main.c:663: 		GPIOA->CRH = (GPIOA->CRH & 0x0ff00fff) | 0x10011000;
 1809 0012 4368     		ldr	r3, [r0, #4]	@ _2, MEM[(struct GPIO_TypeDef *)1073809408B].CRH
 1810              	@ main.c:666: 		oled_hw.sck  = (u32*) m_BITBAND_PERIPH(&GPIOB->ODR,4);
 1811 0014 3D4A     		ldr	r2, .L132+8	@ tmp148,
 1812              	@ main.c:663: 		GPIOA->CRH = (GPIOA->CRH & 0x0ff00fff) | 0x10011000;
 1813 0016 23F0F023 		bic	r3, r3, #-268374016	@ tmp141, _2,
 1814 001a 23F47023 		bic	r3, r3, #983040	@ tmp141, tmp141,
 1815 001e 43F01023 		orr	r3, r3, #268439552	@ _4, tmp141,
 1816 0022 43F48033 		orr	r3, r3, #65536	@ _4, _4,
 1817 0026 4360     		str	r3, [r0, #4]	@ _4, MEM[(struct GPIO_TypeDef *)1073809408B].CRH
 1818              	@ main.c:664: 		GPIOB->CRL = (GPIOB->CRL & 0xfff00fff) | 0x00011000;
 1819 0028 0B68     		ldr	r3, [r1]	@ _5, MEM[(struct GPIO_TypeDef *)1073810432B].CRL
 1820              	@ main.c:670: 		oled_hw.rst  = (u32*) m_BITBAND_PERIPH(&GPIOA->ODR,15);
 1821 002a 3948     		ldr	r0, .L132+12	@ tmp157,
 1822              	@ main.c:664: 		GPIOB->CRL = (GPIOB->CRL & 0xfff00fff) | 0x00011000;
 1823 002c 23F47F23 		bic	r3, r3, #1044480	@ tmp146, _5,
 1824 0030 43F48833 		orr	r3, r3, #69632	@ _7, tmp146,
ARM GAS  /tmp/ccDfNsWv.s 			page 33


 1825              	@ main.c:666: 		oled_hw.sck  = (u32*) m_BITBAND_PERIPH(&GPIOB->ODR,4);
 1826 0034 374F     		ldr	r7, .L132+16	@ tmp149,
 1827              	@ main.c:667: 		oled_hw.mosi = (u32*) m_BITBAND_PERIPH(&GPIOB->ODR,3);
 1828 0036 384E     		ldr	r6, .L132+20	@ tmp151,
 1829              	@ main.c:668: 		oled_hw.dc   = (u32*) m_BITBAND_PERIPH(&GPIOA->ODR,12);
 1830 0038 384D     		ldr	r5, .L132+24	@ tmp153,
 1831              	@ main.c:669: 		oled_hw.cs   = (u32*) m_BITBAND_PERIPH(&GPIOA->ODR,11);
 1832 003a 394C     		ldr	r4, .L132+28	@ tmp155,
 1833              	@ main.c:664: 		GPIOB->CRL = (GPIOB->CRL & 0xfff00fff) | 0x00011000;
 1834 003c 0B60     		str	r3, [r1]	@ _7, MEM[(struct GPIO_TypeDef *)1073810432B].CRL
 1835              	@ main.c:666: 		oled_hw.sck  = (u32*) m_BITBAND_PERIPH(&GPIOB->ODR,4);
 1836 003e 5760     		str	r7, [r2, #4]	@ tmp149, oled_hw.sck
 1837              	@ main.c:667: 		oled_hw.mosi = (u32*) m_BITBAND_PERIPH(&GPIOB->ODR,3);
 1838 0040 1660     		str	r6, [r2]	@ tmp151, oled_hw.mosi
 1839              	@ main.c:668: 		oled_hw.dc   = (u32*) m_BITBAND_PERIPH(&GPIOA->ODR,12);
 1840 0042 9560     		str	r5, [r2, #8]	@ tmp153, oled_hw.dc
 1841              	@ main.c:669: 		oled_hw.cs   = (u32*) m_BITBAND_PERIPH(&GPIOA->ODR,11);
 1842 0044 D460     		str	r4, [r2, #12]	@ tmp155, oled_hw.cs
 1843              	@ main.c:670: 		oled_hw.rst  = (u32*) m_BITBAND_PERIPH(&GPIOA->ODR,15);
 1844 0046 1061     		str	r0, [r2, #16]	@ tmp157, oled_hw.rst
 1845              	@ main.c:673: 		ssd1306_init();
 1846 0048 FFF7FEFF 		bl	ssd1306_init	@
 1847              	@ main.c:690: 		num2uart (tim/TIM_US,7,0);	
 1848 004c 0022     		movs	r2, #0	@,
 1849 004e 0721     		movs	r1, #7	@,
 1850 0050 1046     		mov	r0, r2	@,
 1851 0052 FFF7FEFF 		bl	num2uart	@
 1852              	@ main.c:693: 		num2uart (tim4,8,1);	
 1853 0056 0122     		movs	r2, #1	@,
 1854 0058 0821     		movs	r1, #8	@,
 1855 005a 0298     		ldr	r0, [sp, #8]	@, tim4
 1856 005c FFF7FEFF 		bl	num2uart	@
 1857              	@ main.c:711: 				while(!PB5_i)
 1858 0060 04F5FE44 		add	r4, r4, #32512	@ tmp173, tmp173,
 1859 0064 DFF8C880 		ldr	r8, .L132+44	@ tmp194,
 1860 0068 2E4E     		ldr	r6, .L132+32	@ tmp195,
 1861 006a 2F4F     		ldr	r7, .L132+36	@ tmp197,
 1862              	@ main.c:698: 			if( TIM_MS*500 < (trg0 - SysTick->VAL) ){
 1863 006c 2F4D     		ldr	r5, .L132+40	@ tmp163,
 1864 006e DFF8C490 		ldr	r9, .L132+48	@ tmp165,
 1865              	@ main.c:711: 				while(!PB5_i)
 1866 0072 6834     		adds	r4, r4, #104	@ tmp173, tmp173,
 1867              	.L110:
 1868              	@ main.c:698: 			if( TIM_MS*500 < (trg0 - SysTick->VAL) ){
 1869 0074 D8F80030 		ldr	r3, [r8]	@ trg0.44_10, trg0
 1870 0078 AA68     		ldr	r2, [r5, #8]	@ _11, MEM[(struct SysTick_Type *)3758153744B].VAL
 1871 007a 9B1A     		subs	r3, r3, r2	@ tmp164, trg0.44_10, _11
 1872 007c 4B45     		cmp	r3, r9	@ tmp164, tmp165
 1873 007e F9D9     		bls	.L110	@,
 1874              	@ main.c:699: 				trg0 = SysTick->VAL; 
 1875 0080 D5F808C0 		ldr	ip, [r5, #8]	@ _13, MEM[(struct SysTick_Type *)3758153744B].VAL
 1876              	@ main.c:701: 				i2c1_read( DS3231_ADDR,0,tm,3);
 1877 0084 0323     		movs	r3, #3	@,
 1878 0086 01AA     		add	r2, sp, #4	@ tmp203,,
 1879 0088 0021     		movs	r1, #0	@,
 1880 008a D020     		movs	r0, #208	@,
 1881              	@ main.c:699: 				trg0 = SysTick->VAL; 
ARM GAS  /tmp/ccDfNsWv.s 			page 34


 1882 008c C8F800C0 		str	ip, [r8]	@ _13, trg0
 1883              	@ main.c:701: 				i2c1_read( DS3231_ADDR,0,tm,3);
 1884 0090 FFF7FEFF 		bl	i2c1_read	@
 1885              	@ main.c:706: 				i2c1_read( DS3231_ADDR,0x0e,&ContReg,1);
 1886 0094 0123     		movs	r3, #1	@,
 1887 0096 0DF10302 		add	r2, sp, #3	@ tmp204,,
 1888 009a 0E21     		movs	r1, #14	@,
 1889 009c D020     		movs	r0, #208	@,
 1890 009e FFF7FEFF 		bl	i2c1_read	@
 1891              	.L111:
 1892              	@ main.c:711: 				while(!PB5_i)
 1893 00a2 2368     		ldr	r3, [r4]	@ _15, MEM[(volatile long unsigned int *)1109491988B]
 1894 00a4 2BB9     		cbnz	r3, .L113	@ _15,
 1895              	.L129:
 1896              	@ main.c:712: 				while(PB5_i) 	TIM_start();
 1897 00a6 2368     		ldr	r3, [r4]	@ _14,
 1898 00a8 002B     		cmp	r3, #0	@ _14
 1899 00aa FAD0     		beq	.L111	@
 1900              	@ inc/tool/delay.h:91: 		Timt = SysTick->VAL;
 1901 00ac AB68     		ldr	r3, [r5, #8]	@ _46, MEM[(struct SysTick_Type *)3758153744B].VAL
 1902 00ae 3360     		str	r3, [r6]	@ _46, Timt
 1903 00b0 F9E7     		b	.L129	@
 1904              	.L113:
 1905              	@ main.c:713: 				while(!PB5_i)
 1906 00b2 2368     		ldr	r3, [r4]	@ _17, MEM[(volatile long unsigned int *)1109491988B]
 1907 00b4 3BB9     		cbnz	r3, .L116	@ _17,
 1908              	.L131:
 1909              	@ main.c:714: 				while(PB5_i)	TIM_stop(&tim4);
 1910 00b6 2368     		ldr	r3, [r4]	@ _16,
 1911 00b8 002B     		cmp	r3, #0	@ _16
 1912 00ba FAD0     		beq	.L113	@
 1913              	@ inc/tool/delay.h:94: 		*tim = (Timt - SysTick->VAL);
 1914 00bc 3368     		ldr	r3, [r6]	@ Timt.47_47, Timt
 1915 00be AA68     		ldr	r2, [r5, #8]	@ _48, MEM[(struct SysTick_Type *)3758153744B].VAL
 1916 00c0 9B1A     		subs	r3, r3, r2	@ _49, Timt.47_47, _48
 1917 00c2 0293     		str	r3, [sp, #8]	@ _49, MEM[(volatile u32 *)&tim4]
 1918 00c4 F7E7     		b	.L131	@
 1919              	.L116:
 1920              	@ inc/tool/delay.h:105: 		while( STCLK_US*us > (delay_us - SysTick->VAL) );
 1921 00c6 40F25241 		movw	r1, #1106	@ tmp187,
 1922              	@ inc/tool/delay.h:91: 		Timt = SysTick->VAL;
 1923 00ca AB68     		ldr	r3, [r5, #8]	@ _54, MEM[(struct SysTick_Type *)3758153744B].VAL
 1924 00cc 3360     		str	r3, [r6]	@ _54, Timt
 1925              	@ inc/tool/delay.h:104: 		delay_us = SysTick->VAL; 
 1926 00ce AB68     		ldr	r3, [r5, #8]	@ _50, MEM[(struct SysTick_Type *)3758153744B].VAL
 1927 00d0 3B60     		str	r3, [r7]	@ _50, delay_us
 1928              	.L118:
 1929              	@ inc/tool/delay.h:105: 		while( STCLK_US*us > (delay_us - SysTick->VAL) );
 1930 00d2 3B68     		ldr	r3, [r7]	@ delay_us.48_51, delay_us
 1931 00d4 AA68     		ldr	r2, [r5, #8]	@ _52, MEM[(struct SysTick_Type *)3758153744B].VAL
 1932 00d6 9B1A     		subs	r3, r3, r2	@ tmp186, delay_us.48_51, _52
 1933 00d8 8B42     		cmp	r3, r1	@ tmp186, tmp187
 1934 00da FAD9     		bls	.L118	@,
 1935              	@ main.c:719: 				int2str(tim4,tbuf,6,0); 
 1936 00dc 03A9     		add	r1, sp, #12	@ tmp205,,
 1937 00de 0023     		movs	r3, #0	@,
 1938 00e0 0622     		movs	r2, #6	@,
ARM GAS  /tmp/ccDfNsWv.s 			page 35


 1939 00e2 0298     		ldr	r0, [sp, #8]	@, tim4
 1940 00e4 FFF7FEFF 		bl	int2str	@
 1941              	@ main.c:720: 				int2str(123,tbuf,6,0); 
 1942 00e8 0023     		movs	r3, #0	@,
 1943 00ea 03A9     		add	r1, sp, #12	@ tmp206,,
 1944 00ec 0622     		movs	r2, #6	@,
 1945 00ee 7B20     		movs	r0, #123	@,
 1946 00f0 FFF7FEFF 		bl	int2str	@
 1947              	@ main.c:722: 				oled_str16(0,0,tbuf);
 1948 00f4 0021     		movs	r1, #0	@,
 1949 00f6 03AA     		add	r2, sp, #12	@ tmp207,,
 1950 00f8 0846     		mov	r0, r1	@,
 1951 00fa FFF7FEFF 		bl	oled_str16	@
 1952              	@ main.c:726: 				oled_refresh_gram();
 1953 00fe FFF7FEFF 		bl	oled_refresh_gram	@
 1954 0102 B7E7     		b	.L110	@
 1955              	.L133:
 1956              		.align	2
 1957              	.L132:
 1958 0104 00080140 		.word	1073809408
 1959 0108 000C0140 		.word	1073810432
 1960 010c 00000000 		.word	oled_hw
 1961 0110 BC012142 		.word	1109459388
 1962 0114 90812142 		.word	1109492112
 1963 0118 8C812142 		.word	1109492108
 1964 011c B0012142 		.word	1109459376
 1965 0120 AC012142 		.word	1109459372
 1966 0124 00000000 		.word	Timt
 1967 0128 00000000 		.word	delay_us
 1968 012c 10E000E0 		.word	-536813552
 1969 0130 00000000 		.word	trg0
 1970 0134 20AA4400 		.word	4500000
 1971              		.size	rtc_calibrate, .-rtc_calibrate
 1972              		.section	.text.testwsk,"ax",%progbits
 1973              		.align	1
 1974              		.p2align 2,,3
 1975              		.global	testwsk
 1976              		.syntax unified
 1977              		.thumb
 1978              		.thumb_func
 1979              		.fpu softvfp
 1980              		.type	testwsk, %function
 1981              	testwsk:
 1982              		@ args = 0, pretend = 0, frame = 0
 1983              		@ frame_needed = 0, uses_anonymous_args = 0
 1984              		@ link register save eliminated.
 1985              	@ main.c:744: 	}
 1986 0000 7047     		bx	lr	@
 1987              		.size	testwsk, .-testwsk
 1988 0002 00BF     		.section	.text.veml6075,"ax",%progbits
 1989              		.align	1
 1990              		.p2align 2,,3
 1991              		.global	veml6075
 1992              		.syntax unified
 1993              		.thumb
 1994              		.thumb_func
 1995              		.fpu softvfp
ARM GAS  /tmp/ccDfNsWv.s 			page 36


 1996              		.type	veml6075, %function
 1997              	veml6075:
 1998              		@ args = 0, pretend = 0, frame = 16
 1999              		@ frame_needed = 0, uses_anonymous_args = 0
 2000              	@ main.c:748: 		p_Fifo1->rct=1;	p_Fifo1->rwi=1;	p_Fifo1->rbuf[0]='l';
 2001 0000 0123     		movs	r3, #1	@ tmp128,
 2002 0002 6C20     		movs	r0, #108	@ tmp131,
 2003 0004 264A     		ldr	r2, .L140	@ tmp126,
 2004              	@ main.c:765: 		LED=1;
 2005 0006 2749     		ldr	r1, .L140+4	@ tmp133,
 2006              	@ main.c:748: 		p_Fifo1->rct=1;	p_Fifo1->rwi=1;	p_Fifo1->rbuf[0]='l';
 2007 0008 1268     		ldr	r2, [r2]	@ p_Fifo1.49_1, p_Fifo1
 2008              	@ main.c:745: void veml6075(void){
 2009 000a 2DE9F041 		push	{r4, r5, r6, r7, r8, lr}	@
 2010              	@ main.c:767: 		GPIOA->CRH = (GPIOA->CRH & 0x0ff00fff) | 0x10011000;
 2011 000e 264C     		ldr	r4, .L140+8	@ tmp135,
 2012              	@ main.c:748: 		p_Fifo1->rct=1;	p_Fifo1->rwi=1;	p_Fifo1->rbuf[0]='l';
 2013 0010 9380     		strh	r3, [r2, #4]	@ movhi	@ tmp128, p_Fifo1.49_1->rct
 2014 0012 5380     		strh	r3, [r2, #2]	@ movhi	@ tmp128, p_Fifo1.49_1->rwi
 2015 0014 9071     		strb	r0, [r2, #6]	@ tmp131, p_Fifo1.49_1->rbuf
 2016              	@ main.c:765: 		LED=1;
 2017 0016 0B60     		str	r3, [r1]	@ tmp128, MEM[(volatile long unsigned int *)1109524916B]
 2018              	@ main.c:767: 		GPIOA->CRH = (GPIOA->CRH & 0x0ff00fff) | 0x10011000;
 2019 0018 6368     		ldr	r3, [r4, #4]	@ _4, MEM[(struct GPIO_TypeDef *)1073809408B].CRH
 2020              	@ main.c:768: 		GPIOB->CRL = (GPIOB->CRL & 0xfff00fff) | 0x00011000;
 2021 001a 2448     		ldr	r0, .L140+12	@ tmp140,
 2022              	@ main.c:767: 		GPIOA->CRH = (GPIOA->CRH & 0x0ff00fff) | 0x10011000;
 2023 001c 23F0F023 		bic	r3, r3, #-268374016	@ tmp136, _4,
 2024 0020 23F47023 		bic	r3, r3, #983040	@ tmp136, tmp136,
 2025 0024 43F01023 		orr	r3, r3, #268439552	@ _6, tmp136,
 2026 0028 43F48033 		orr	r3, r3, #65536	@ _6, _6,
 2027 002c 6360     		str	r3, [r4, #4]	@ _6, MEM[(struct GPIO_TypeDef *)1073809408B].CRH
 2028              	@ main.c:768: 		GPIOB->CRL = (GPIOB->CRL & 0xfff00fff) | 0x00011000;
 2029 002e 0268     		ldr	r2, [r0]	@ _7, MEM[(struct GPIO_TypeDef *)1073810432B].CRL
 2030              	@ main.c:770: 		oled_hw.sck  = (u32*) m_BITBAND_PERIPH(&GPIOB->ODR,4);
 2031 0030 1F4B     		ldr	r3, .L140+16	@ tmp143,
 2032              	@ main.c:768: 		GPIOB->CRL = (GPIOB->CRL & 0xfff00fff) | 0x00011000;
 2033 0032 22F47F22 		bic	r2, r2, #1044480	@ tmp141, _7,
 2034 0036 42F48832 		orr	r2, r2, #69632	@ _9, tmp141,
 2035 003a 0260     		str	r2, [r0]	@ _9, MEM[(struct GPIO_TypeDef *)1073810432B].CRL
 2036              	@ main.c:770: 		oled_hw.sck  = (u32*) m_BITBAND_PERIPH(&GPIOB->ODR,4);
 2037 003c 1D4E     		ldr	r6, .L140+20	@ tmp144,
 2038              	@ main.c:773: 		oled_hw.cs   = (u32*) m_BITBAND_PERIPH(&GPIOA->ODR,11);
 2039 003e 1E48     		ldr	r0, .L140+24	@ tmp150,
 2040              	@ main.c:774: 		oled_hw.rst  = (u32*) m_BITBAND_PERIPH(&GPIOA->ODR,15);
 2041 0040 1E4A     		ldr	r2, .L140+28	@ tmp152,
 2042              	@ main.c:771: 		oled_hw.mosi = (u32*) m_BITBAND_PERIPH(&GPIOB->ODR,3);
 2043 0042 1F4D     		ldr	r5, .L140+32	@ tmp146,
 2044              	@ main.c:772: 		oled_hw.dc   = (u32*) m_BITBAND_PERIPH(&GPIOA->ODR,12);
 2045 0044 1F4C     		ldr	r4, .L140+36	@ tmp148,
 2046              	@ main.c:745: void veml6075(void){
 2047 0046 84B0     		sub	sp, sp, #16	@,,
 2048              	@ main.c:770: 		oled_hw.sck  = (u32*) m_BITBAND_PERIPH(&GPIOB->ODR,4);
 2049 0048 5E60     		str	r6, [r3, #4]	@ tmp144, oled_hw.sck
 2050              	@ main.c:800: 				LED^=1;
 2051 004a 8846     		mov	r8, r1	@ tmp163, tmp133
 2052              	@ main.c:771: 		oled_hw.mosi = (u32*) m_BITBAND_PERIPH(&GPIOB->ODR,3);
ARM GAS  /tmp/ccDfNsWv.s 			page 37


 2053 004c 1D60     		str	r5, [r3]	@ tmp146, oled_hw.mosi
 2054              	@ main.c:792: 		oled_refresh_gram();
 2055 004e 0027     		movs	r7, #0	@ ivtmp.406,
 2056              	@ main.c:772: 		oled_hw.dc   = (u32*) m_BITBAND_PERIPH(&GPIOA->ODR,12);
 2057 0050 9C60     		str	r4, [r3, #8]	@ tmp148, oled_hw.dc
 2058              	@ main.c:773: 		oled_hw.cs   = (u32*) m_BITBAND_PERIPH(&GPIOA->ODR,11);
 2059 0052 D860     		str	r0, [r3, #12]	@ tmp150, oled_hw.cs
 2060              	@ main.c:774: 		oled_hw.rst  = (u32*) m_BITBAND_PERIPH(&GPIOA->ODR,15);
 2061 0054 1A61     		str	r2, [r3, #16]	@ tmp152, oled_hw.rst
 2062              	@ main.c:777: 		ssd1306_init();
 2063 0056 FFF7FEFF 		bl	ssd1306_init	@
 2064              	@ main.c:792: 		oled_refresh_gram();
 2065 005a FFF7FEFF 		bl	oled_refresh_gram	@
 2066 005e 1A4D     		ldr	r5, .L140+40	@ tmp166,
 2067              	@ main.c:795: 			if(STCLK_MS*20 < (trg0 - SysTick->VAL)){	
 2068 0060 1A4C     		ldr	r4, .L140+44	@ tmp154,
 2069 0062 1B4E     		ldr	r6, .L140+48	@ tmp156,
 2070              	.L136:
 2071 0064 2B68     		ldr	r3, [r5]	@ trg0.52_10, trg0
 2072 0066 A268     		ldr	r2, [r4, #8]	@ _11, MEM[(struct SysTick_Type *)3758153744B].VAL
 2073 0068 9B1A     		subs	r3, r3, r2	@ tmp155, trg0.52_10, _11
 2074 006a B342     		cmp	r3, r6	@ tmp155, tmp156
 2075 006c FAD9     		bls	.L136	@,
 2076              	@ main.c:796: 				trg0  = SysTick->VAL;	
 2077 006e D4F808C0 		ldr	ip, [r4, #8]	@ _13, MEM[(struct SysTick_Type *)3758153744B].VAL
 2078              	@ main.c:797: 				int2str(cnt++ ,tbuf,5,0);		oled_num24(0,0,tbuf);
 2079 0072 0023     		movs	r3, #0	@,
 2080 0074 0522     		movs	r2, #5	@,
 2081 0076 01A9     		add	r1, sp, #4	@ tmp167,,
 2082 0078 B8B2     		uxth	r0, r7	@, ivtmp.406
 2083              	@ main.c:796: 				trg0  = SysTick->VAL;	
 2084 007a C5F800C0 		str	ip, [r5]	@ _13, trg0
 2085              	@ main.c:797: 				int2str(cnt++ ,tbuf,5,0);		oled_num24(0,0,tbuf);
 2086 007e FFF7FEFF 		bl	int2str	@
 2087 0082 0021     		movs	r1, #0	@,
 2088 0084 01AA     		add	r2, sp, #4	@ tmp168,,
 2089 0086 0846     		mov	r0, r1	@,
 2090 0088 FFF7FEFF 		bl	oled_num24	@
 2091              	@ main.c:798: 				oled_refresh_gram();	
 2092 008c FFF7FEFF 		bl	oled_refresh_gram	@
 2093              	@ main.c:800: 				LED^=1;
 2094 0090 D8F80030 		ldr	r3, [r8]	@ _16, MEM[(volatile long unsigned int *)1109524916B]
 2095 0094 0137     		adds	r7, r7, #1	@ ivtmp.406, ivtmp.406,
 2096 0096 83F00103 		eor	r3, r3, #1	@ _17, _16,
 2097 009a C8F80030 		str	r3, [r8]	@ _17, MEM[(volatile long unsigned int *)1109524916B]
 2098 009e E1E7     		b	.L136	@
 2099              	.L141:
 2100              		.align	2
 2101              	.L140:
 2102 00a0 00000000 		.word	p_Fifo1
 2103 00a4 B4012242 		.word	1109524916
 2104 00a8 00080140 		.word	1073809408
 2105 00ac 000C0140 		.word	1073810432
 2106 00b0 00000000 		.word	oled_hw
 2107 00b4 90812142 		.word	1109492112
 2108 00b8 AC012142 		.word	1109459372
 2109 00bc BC012142 		.word	1109459388
ARM GAS  /tmp/ccDfNsWv.s 			page 38


 2110 00c0 8C812142 		.word	1109492108
 2111 00c4 B0012142 		.word	1109459376
 2112 00c8 00000000 		.word	trg0
 2113 00cc 10E000E0 		.word	-536813552
 2114 00d0 20BF0200 		.word	180000
 2115              		.size	veml6075, .-veml6075
 2116              		.section	.text.softSPI_w,"ax",%progbits
 2117              		.align	1
 2118              		.p2align 2,,3
 2119              		.global	softSPI_w
 2120              		.syntax unified
 2121              		.thumb
 2122              		.thumb_func
 2123              		.fpu softvfp
 2124              		.type	softSPI_w, %function
 2125              	softSPI_w:
 2126              		@ args = 0, pretend = 0, frame = 0
 2127              		@ frame_needed = 0, uses_anonymous_args = 0
 2128 0000 2DE9F043 		push	{r4, r5, r6, r7, r8, r9, lr}	@
 2129              	@ main.c:920: 			if (byte & 0x80)			wMOSI = 1;
 2130 0004 4FF0010E 		mov	lr, #1	@ tmp152,
 2131              	@ main.c:916: uint8_t softSPI_w(uint8_t byte)	{
 2132 0008 0824     		movs	r4, #8	@ ivtmp_5,
 2133              	@ main.c:924: 			wSCK = 1; /* a slave latches input data bit */
 2134 000a F046     		mov	r8, lr	@ MEM[(volatile long unsigned int *)1109459348B], tmp152
 2135              	@ main.c:921: 			else			wMOSI = 0;
 2136 000c 0026     		movs	r6, #0	@ tmp151,
 2137 000e 1549     		ldr	r1, .L156	@ tmp149,
 2138 0010 DFF85CC0 		ldr	ip, .L156+12	@ tmp150,
 2139              	@ main.c:924: 			wSCK = 1; /* a slave latches input data bit */
 2140 0014 144D     		ldr	r5, .L156+4	@ tmp131,
 2141              	@ inc/tool/delay.h:104: 		delay_us = SysTick->VAL; 
 2142 0016 154A     		ldr	r2, .L156+8	@ tmp133,
 2143              	@ main.c:926: 			if (wMISO)			byte |= 0x01;
 2144 0018 DFF85890 		ldr	r9, .L156+16	@ tmp138,
 2145              	.L148:
 2146              	@ main.c:920: 			if (byte & 0x80)			wMOSI = 1;
 2147 001c 0306     		lsls	r3, r0, #24	@, byte,
 2148 001e 4CBF     		ite	mi
 2149 0020 CCF800E0 		strmi	lr, [ip]	@ tmp152, MEM[(volatile long unsigned int *)1109459356B]
 2150              	@ main.c:921: 			else			wMOSI = 0;
 2151 0024 CCF80060 		strpl	r6, [ip]	@ tmp151, MEM[(volatile long unsigned int *)1109459356B]
 2152              	@ main.c:924: 			wSCK = 1; /* a slave latches input data bit */
 2153 0028 C5F80080 		str	r8, [r5]	@ MEM[(volatile long unsigned int *)1109459348B], MEM[(volatile long unsigned int *)1
 2154              	@ inc/tool/delay.h:104: 		delay_us = SysTick->VAL; 
 2155 002c 9368     		ldr	r3, [r2, #8]	@ _18, MEM[(struct SysTick_Type *)3758153744B].VAL
 2156              	@ main.c:923: 			byte <<= 1;
 2157 002e 4000     		lsls	r0, r0, #1	@ tmp130, byte,
 2158 0030 C0B2     		uxtb	r0, r0	@ byte, tmp130
 2159              	@ inc/tool/delay.h:104: 		delay_us = SysTick->VAL; 
 2160 0032 0B60     		str	r3, [r1]	@ _18, delay_us
 2161              	.L145:
 2162              	@ inc/tool/delay.h:105: 		while( STCLK_US*us > (delay_us - SysTick->VAL) );
 2163 0034 0B68     		ldr	r3, [r1]	@ delay_us.48_19, delay_us
 2164 0036 9768     		ldr	r7, [r2, #8]	@ _20, MEM[(struct SysTick_Type *)3758153744B].VAL
 2165 0038 DB1B     		subs	r3, r3, r7	@ tmp137, delay_us.48_19, _20
 2166 003a 592B     		cmp	r3, #89	@ tmp137,
ARM GAS  /tmp/ccDfNsWv.s 			page 39


 2167 003c FAD9     		bls	.L145	@,
 2168              	@ main.c:926: 			if (wMISO)			byte |= 0x01;
 2169 003e D9F80030 		ldr	r3, [r9]	@ _2, MEM[(volatile long unsigned int *)1109459224B]
 2170 0042 0BB1     		cbz	r3, .L146	@ _2,
 2171              	@ main.c:926: 			if (wMISO)			byte |= 0x01;
 2172 0044 40F00100 		orr	r0, r0, #1	@ byte, byte,
 2173              	.L146:
 2174              	@ main.c:928: 			wSCK = 0; /* a slave shifts out next output data bit */
 2175 0048 2E60     		str	r6, [r5]	@ tmp151, MEM[(volatile long unsigned int *)1109459348B]
 2176              	@ inc/tool/delay.h:104: 		delay_us = SysTick->VAL; 
 2177 004a 9368     		ldr	r3, [r2, #8]	@ _22, MEM[(struct SysTick_Type *)3758153744B].VAL
 2178 004c 0B60     		str	r3, [r1]	@ _22, delay_us
 2179              	.L147:
 2180              	@ inc/tool/delay.h:105: 		while( STCLK_US*us > (delay_us - SysTick->VAL) );
 2181 004e 0B68     		ldr	r3, [r1]	@ delay_us.48_23, delay_us
 2182 0050 9768     		ldr	r7, [r2, #8]	@ _24, MEM[(struct SysTick_Type *)3758153744B].VAL
 2183 0052 DB1B     		subs	r3, r3, r7	@ tmp146, delay_us.48_23, _24
 2184 0054 592B     		cmp	r3, #89	@ tmp146,
 2185 0056 FAD9     		bls	.L147	@,
 2186 0058 013C     		subs	r4, r4, #1	@ tmp147, ivtmp_5,
 2187              	@ main.c:918: 		for(counter = 8; counter; counter--)
 2188 005a 14F0FF04 		ands	r4, r4, #255	@ ivtmp_5, tmp147,
 2189 005e DDD1     		bne	.L148	@,
 2190              	@ main.c:932: 	}
 2191 0060 BDE8F083 		pop	{r4, r5, r6, r7, r8, r9, pc}	@
 2192              	.L157:
 2193              		.align	2
 2194              	.L156:
 2195 0064 00000000 		.word	delay_us
 2196 0068 94012142 		.word	1109459348
 2197 006c 10E000E0 		.word	-536813552
 2198 0070 9C012142 		.word	1109459356
 2199 0074 18012142 		.word	1109459224
 2200              		.size	softSPI_w, .-softSPI_w
 2201              		.section	.text.softSPI_r,"ax",%progbits
 2202              		.align	1
 2203              		.p2align 2,,3
 2204              		.global	softSPI_r
 2205              		.syntax unified
 2206              		.thumb
 2207              		.thumb_func
 2208              		.fpu softvfp
 2209              		.type	softSPI_r, %function
 2210              	softSPI_r:
 2211              		@ args = 0, pretend = 0, frame = 0
 2212              		@ frame_needed = 0, uses_anonymous_args = 0
 2213              		@ link register save eliminated.
 2214              	@ main.c:939: 			else				wMOSI = 0;
 2215 0000 4FF0000C 		mov	ip, #0	@ tmp132,
 2216              	@ main.c:934: uint8_t softSPI_r(uint8_t byte)	{
 2217 0004 F0B4     		push	{r4, r5, r6, r7}	@
 2218              	@ main.c:934: uint8_t softSPI_r(uint8_t byte)	{
 2219 0006 0823     		movs	r3, #8	@ ivtmp_5,
 2220              	@ main.c:941: 			wSCK = 0; /* a slave shifts out output data bit */
 2221 0008 6746     		mov	r7, ip	@ MEM[(volatile long unsigned int *)1109459348B], tmp132
 2222              	@ main.c:938: 			if (byte & 0x80)			wMOSI = 1;
 2223 000a 0124     		movs	r4, #1	@ tmp133,
ARM GAS  /tmp/ccDfNsWv.s 			page 40


 2224              	@ main.c:939: 			else				wMOSI = 0;
 2225 000c 0A4E     		ldr	r6, .L168	@ tmp131,
 2226              	@ main.c:941: 			wSCK = 0; /* a slave shifts out output data bit */
 2227 000e 0B4A     		ldr	r2, .L168+4	@ tmp122,
 2228              	@ main.c:944: 			if (wMISO)		byte |= 0x01;
 2229 0010 0B4D     		ldr	r5, .L168+8	@ tmp125,
 2230              	.L162:
 2231              	@ main.c:938: 			if (byte & 0x80)			wMOSI = 1;
 2232 0012 0106     		lsls	r1, r0, #24	@, byte,
 2233 0014 4CBF     		ite	mi
 2234 0016 3460     		strmi	r4, [r6]	@ tmp133, MEM[(volatile long unsigned int *)1109459356B]
 2235              	@ main.c:939: 			else				wMOSI = 0;
 2236 0018 C6F800C0 		strpl	ip, [r6]	@ tmp132, MEM[(volatile long unsigned int *)1109459356B]
 2237              	@ main.c:941: 			wSCK = 0; /* a slave shifts out output data bit */
 2238 001c 1760     		str	r7, [r2]	@ MEM[(volatile long unsigned int *)1109459348B], MEM[(volatile long unsigned int *)1
 2239              	@ main.c:944: 			if (wMISO)		byte |= 0x01;
 2240 001e 2968     		ldr	r1, [r5]	@ _2, MEM[(volatile long unsigned int *)1109459224B]
 2241              	@ main.c:942: 			byte <<= 1;
 2242 0020 4000     		lsls	r0, r0, #1	@ tmp124, byte,
 2243 0022 013B     		subs	r3, r3, #1	@ tmp129, ivtmp_5,
 2244 0024 C0B2     		uxtb	r0, r0	@ byte, tmp124
 2245              	@ main.c:944: 			if (wMISO)		byte |= 0x01;
 2246 0026 09B1     		cbz	r1, .L161	@ _2,
 2247              	@ main.c:944: 			if (wMISO)		byte |= 0x01;
 2248 0028 40F00100 		orr	r0, r0, #1	@ byte, byte,
 2249              	.L161:
 2250              	@ main.c:936: 		for(counter = 8; counter; counter--)
 2251 002c 13F0FF03 		ands	r3, r3, #255	@ ivtmp_5, tmp129,
 2252              	@ main.c:945: 			wSCK = 1; /* a slave latches input data bit */
 2253 0030 1460     		str	r4, [r2]	@ tmp133, MEM[(volatile long unsigned int *)1109459348B]
 2254              	@ main.c:936: 		for(counter = 8; counter; counter--)
 2255 0032 EED1     		bne	.L162	@,
 2256              	@ main.c:948: 	}
 2257 0034 F0BC     		pop	{r4, r5, r6, r7}	@
 2258 0036 7047     		bx	lr	@
 2259              	.L169:
 2260              		.align	2
 2261              	.L168:
 2262 0038 9C012142 		.word	1109459356
 2263 003c 94012142 		.word	1109459348
 2264 0040 18012142 		.word	1109459224
 2265              		.size	softSPI_r, .-softSPI_r
 2266              		.section	.text.ili9486,"ax",%progbits
 2267              		.align	1
 2268              		.p2align 2,,3
 2269              		.global	ili9486
 2270              		.syntax unified
 2271              		.thumb
 2272              		.thumb_func
 2273              		.fpu softvfp
 2274              		.type	ili9486, %function
 2275              	ili9486:
 2276              		@ args = 0, pretend = 0, frame = 8
 2277              		@ frame_needed = 0, uses_anonymous_args = 0
 2278              	@ main.c:952: 		p_Fifo1->rct=1;	p_Fifo1->rwi=1;	p_Fifo1->rbuf[0]='c';
 2279 0000 0123     		movs	r3, #1	@ tmp136,
 2280 0002 6320     		movs	r0, #99	@ tmp139,
ARM GAS  /tmp/ccDfNsWv.s 			page 41


 2281              	@ main.c:949: void ili9486(void){
 2282 0004 2DE9F04F 		push	{r4, r5, r6, r7, r8, r9, r10, fp, lr}	@
 2283              	@ main.c:952: 		p_Fifo1->rct=1;	p_Fifo1->rwi=1;	p_Fifo1->rbuf[0]='c';
 2284 0008 DFF85491 		ldr	r9, .L201+56	@ tmp196,
 2285              	@ main.c:954: 		GPIOA->CRL = (GPIOA->CRL & 0x0000ffff) | 0x34330000;	//   PA7=MOSI, PA6=MISO, PA5=S
 2286 000c 4649     		ldr	r1, .L201	@ tmp141,
 2287              	@ main.c:952: 		p_Fifo1->rct=1;	p_Fifo1->rwi=1;	p_Fifo1->rbuf[0]='c';
 2288 000e D9F80020 		ldr	r2, [r9]	@ pretmp_14, p_Fifo1
 2289              	@ main.c:939: 			else				wMOSI = 0;
 2290 0012 464E     		ldr	r6, .L201+4	@ tmp207,
 2291              	@ main.c:952: 		p_Fifo1->rct=1;	p_Fifo1->rwi=1;	p_Fifo1->rbuf[0]='c';
 2292 0014 9380     		strh	r3, [r2, #4]	@ movhi	@ tmp136, p_Fifo1.63_1->rct
 2293 0016 5380     		strh	r3, [r2, #2]	@ movhi	@ tmp136, p_Fifo1.63_1->rwi
 2294 0018 9071     		strb	r0, [r2, #6]	@ tmp139, p_Fifo1.63_1->rbuf
 2295              	@ main.c:954: 		GPIOA->CRL = (GPIOA->CRL & 0x0000ffff) | 0x34330000;	//   PA7=MOSI, PA6=MISO, PA5=S
 2296 001a 0B68     		ldr	r3, [r1]	@ _4, MEM[(struct GPIO_TypeDef *)1073809408B].CRL
 2297              	@ main.c:941: 			wSCK = 0; /* a slave shifts out output data bit */
 2298 001c 444C     		ldr	r4, .L201+8	@ tmp208,
 2299              	@ main.c:954: 		GPIOA->CRL = (GPIOA->CRL & 0x0000ffff) | 0x34330000;	//   PA7=MOSI, PA6=MISO, PA5=S
 2300 001e 9BB2     		uxth	r3, r3	@ tmp142, _4
 2301 0020 43F05053 		orr	r3, r3, #872415232	@ _6, tmp142,
 2302 0024 43F44C13 		orr	r3, r3, #3342336	@ _6, _6,
 2303              	@ main.c:949: void ili9486(void){
 2304 0028 83B0     		sub	sp, sp, #12	@,,
 2305              	@ main.c:954: 		GPIOA->CRL = (GPIOA->CRL & 0x0000ffff) | 0x34330000;	//   PA7=MOSI, PA6=MISO, PA5=S
 2306 002a 0B60     		str	r3, [r1]	@ _6, MEM[(struct GPIO_TypeDef *)1073809408B].CRL
 2307              	.L172:
 2308              	@ main.c:958: 			if(p_Fifo1->rct){
 2309 002c 9388     		ldrh	r3, [r2, #4]	@, prephitmp_55->rct
 2310 002e 9BB2     		uxth	r3, r3	@ _8, prephitmp_55->rct
 2311 0030 002B     		cmp	r3, #0	@ _8
 2312 0032 FBD0     		beq	.L172	@
 2313              	@ main.c:959: 				UART_getChar( (char*)&swh);
 2314 0034 0DF10700 		add	r0, sp, #7	@ tmp214,,
 2315 0038 FFF7FEFF 		bl	UART_getChar	@
 2316              	@ main.c:961: 				switch (swh)	{
 2317 003c 9DF80730 		ldrb	r3, [sp, #7]	@ zero_extendqisi2	@ swh, swh
 2318 0040 722B     		cmp	r3, #114	@ swh,
 2319 0042 09D0     		beq	.L174	@,
 2320 0044 772B     		cmp	r3, #119	@ swh,
 2321 0046 42D0     		beq	.L175	@,
 2322 0048 632B     		cmp	r3, #99	@ swh,
 2323 004a 30D0     		beq	.L200	@,
 2324              	@ main.c:987: 					UaPutK("\r");
 2325 004c 3948     		ldr	r0, .L201+12	@,
 2326 004e FFF7FEFF 		bl	UaPutK	@
 2327              	.L181:
 2328 0052 D9F80020 		ldr	r2, [r9]	@ pretmp_14, p_Fifo1
 2329 0056 E9E7     		b	.L172	@
 2330              	.L174:
 2331              	@ main.c:964: 					UaPutK("\r\n reg = 0x");	reg=UART_getHex();
 2332 0058 3748     		ldr	r0, .L201+16	@,
 2333 005a FFF7FEFF 		bl	UaPutK	@
 2334 005e FFF7FEFF 		bl	UART_getHex	@
 2335 0062 C5B2     		uxtb	r5, r0	@ reg,
 2336              	@ main.c:965: 					UaPutK("\r\n dat = 0x");
 2337 0064 3548     		ldr	r0, .L201+20	@,
ARM GAS  /tmp/ccDfNsWv.s 			page 42


 2338 0066 FFF7FEFF 		bl	UaPutK	@
 2339              	@ main.c:966: 					wCS = 0;		dat = softSPI_r(reg); 	wCS = 1;
 2340 006a 0022     		movs	r2, #0	@ tmp154,
 2341 006c 0823     		movs	r3, #8	@ ivtmp_53,
 2342              	@ main.c:939: 			else				wMOSI = 0;
 2343 006e 9446     		mov	ip, r2	@ tmp198, tmp154
 2344              	@ main.c:941: 			wSCK = 0; /* a slave shifts out output data bit */
 2345 0070 1746     		mov	r7, r2	@ MEM[(volatile long unsigned int *)1109459348B], tmp198
 2346              	@ main.c:938: 			if (byte & 0x80)			wMOSI = 1;
 2347 0072 0121     		movs	r1, #1	@ tmp199,
 2348              	@ main.c:966: 					wCS = 0;		dat = softSPI_r(reg); 	wCS = 1;
 2349 0074 3248     		ldr	r0, .L201+24	@ tmp215,
 2350              	@ main.c:944: 			if (wMISO)		byte |= 0x01;
 2351 0076 DFF8E0E0 		ldr	lr, .L201+48	@ tmp163,
 2352              	@ main.c:966: 					wCS = 0;		dat = softSPI_r(reg); 	wCS = 1;
 2353 007a 0260     		str	r2, [r0]	@ tmp154, MEM[(volatile long unsigned int *)1109459344B]
 2354              	.L180:
 2355              	@ main.c:938: 			if (byte & 0x80)			wMOSI = 1;
 2356 007c 2A06     		lsls	r2, r5, #24	@, reg,
 2357 007e 4CBF     		ite	mi
 2358 0080 3160     		strmi	r1, [r6]	@ tmp199, MEM[(volatile long unsigned int *)1109459356B]
 2359              	@ main.c:939: 			else				wMOSI = 0;
 2360 0082 C6F800C0 		strpl	ip, [r6]	@ tmp198, MEM[(volatile long unsigned int *)1109459356B]
 2361              	@ main.c:941: 			wSCK = 0; /* a slave shifts out output data bit */
 2362 0086 2760     		str	r7, [r4]	@ MEM[(volatile long unsigned int *)1109459348B], MEM[(volatile long unsigned int *)1
 2363              	@ main.c:944: 			if (wMISO)		byte |= 0x01;
 2364 0088 DEF80020 		ldr	r2, [lr]	@ _43, MEM[(volatile long unsigned int *)1109459224B]
 2365              	@ main.c:942: 			byte <<= 1;
 2366 008c 6D00     		lsls	r5, r5, #1	@ tmp162, reg,
 2367 008e 013B     		subs	r3, r3, #1	@ tmp167, ivtmp_53,
 2368 0090 EDB2     		uxtb	r5, r5	@ reg, tmp162
 2369              	@ main.c:944: 			if (wMISO)		byte |= 0x01;
 2370 0092 0AB1     		cbz	r2, .L179	@ _43,
 2371 0094 45F00105 		orr	r5, r5, #1	@ reg, reg,
 2372              	.L179:
 2373              	@ main.c:936: 		for(counter = 8; counter; counter--)
 2374 0098 13F0FF03 		ands	r3, r3, #255	@ ivtmp_53, tmp167,
 2375              	@ main.c:945: 			wSCK = 1; /* a slave latches input data bit */
 2376 009c 2160     		str	r1, [r4]	@ tmp199, MEM[(volatile long unsigned int *)1109459348B]
 2377              	@ main.c:936: 		for(counter = 8; counter; counter--)
 2378 009e EDD1     		bne	.L180	@,
 2379              	@ main.c:966: 					wCS = 0;		dat = softSPI_r(reg); 	wCS = 1;
 2380 00a0 274B     		ldr	r3, .L201+24	@ tmp216,
 2381              	@ main.c:967: 					hex2uart(dat,2);
 2382 00a2 2846     		mov	r0, r5	@, reg
 2383              	@ main.c:966: 					wCS = 0;		dat = softSPI_r(reg); 	wCS = 1;
 2384 00a4 1960     		str	r1, [r3]	@ tmp199, MEM[(volatile long unsigned int *)1109459344B]
 2385              	@ main.c:967: 					hex2uart(dat,2);
 2386 00a6 0221     		movs	r1, #2	@,
 2387 00a8 FFF7FEFF 		bl	hex2uart	@
 2388              	@ main.c:969: 					break;
 2389 00ac D1E7     		b	.L181	@
 2390              	.L200:
 2391              	@ main.c:980: 					UaPutK("\f");
 2392 00ae 2548     		ldr	r0, .L201+28	@,
 2393 00b0 FFF7FEFF 		bl	UaPutK	@
 2394              	@ main.c:981: 					UaPutK("\n\r\n======= ILI9486 ==================================\r\n");
ARM GAS  /tmp/ccDfNsWv.s 			page 43


 2395 00b4 2448     		ldr	r0, .L201+32	@,
 2396 00b6 FFF7FEFF 		bl	UaPutK	@
 2397              	@ main.c:982: 					UaPutK(" r - Read   c - Clear page  \r\n");
 2398 00ba 2448     		ldr	r0, .L201+36	@,
 2399 00bc FFF7FEFF 		bl	UaPutK	@
 2400              	@ main.c:983: 					UaPutK(" w - Write  l - Loop read   \r\n");
 2401 00c0 2348     		ldr	r0, .L201+40	@,
 2402 00c2 FFF7FEFF 		bl	UaPutK	@
 2403              	@ main.c:984: 					UaPutK("==================================================\r\n > ");
 2404 00c6 2348     		ldr	r0, .L201+44	@,
 2405 00c8 FFF7FEFF 		bl	UaPutK	@
 2406              	@ main.c:985: 					break;
 2407 00cc C1E7     		b	.L181	@
 2408              	.L175:
 2409              	@ main.c:971: 					wCS = 0;
 2410 00ce 0023     		movs	r3, #0	@ tmp171,
 2411              	@ main.c:972: 					for(u08 i=0;i<64;i++){
 2412 00d0 9B46     		mov	fp, r3	@ i, tmp171
 2413              	@ main.c:939: 			else				wMOSI = 0;
 2414 00d2 9A46     		mov	r10, r3	@ tmp202, i
 2415              	@ main.c:941: 			wSCK = 0; /* a slave shifts out output data bit */
 2416 00d4 9846     		mov	r8, r3	@ MEM[(volatile long unsigned int *)1109459348B], i
 2417              	@ main.c:971: 					wCS = 0;
 2418 00d6 1A4A     		ldr	r2, .L201+24	@ tmp217,
 2419              	@ main.c:944: 			if (wMISO)		byte |= 0x01;
 2420 00d8 1F4F     		ldr	r7, .L201+48	@ tmp180,
 2421              	@ main.c:971: 					wCS = 0;
 2422 00da 1360     		str	r3, [r2]	@ tmp171, MEM[(volatile long unsigned int *)1109459344B]
 2423              	.L182:
 2424              	@ main.c:966: 					wCS = 0;		dat = softSPI_r(reg); 	wCS = 1;
 2425 00dc 5846     		mov	r0, fp	@ byte, i
 2426 00de 0822     		movs	r2, #8	@ ivtmp_7,
 2427              	@ main.c:938: 			if (byte & 0x80)			wMOSI = 1;
 2428 00e0 0125     		movs	r5, #1	@ tmp203,
 2429              	.L186:
 2430 00e2 0306     		lsls	r3, r0, #24	@, byte,
 2431 00e4 4CBF     		ite	mi
 2432 00e6 3560     		strmi	r5, [r6]	@ tmp203, MEM[(volatile long unsigned int *)1109459356B]
 2433              	@ main.c:939: 			else				wMOSI = 0;
 2434 00e8 C6F800A0 		strpl	r10, [r6]	@ tmp202, MEM[(volatile long unsigned int *)1109459356B]
 2435              	@ main.c:941: 			wSCK = 0; /* a slave shifts out output data bit */
 2436 00ec C4F80080 		str	r8, [r4]	@ MEM[(volatile long unsigned int *)1109459348B], MEM[(volatile long unsigned int *)1
 2437              	@ main.c:944: 			if (wMISO)		byte |= 0x01;
 2438 00f0 3968     		ldr	r1, [r7]	@ _51, MEM[(volatile long unsigned int *)1109459224B]
 2439              	@ main.c:942: 			byte <<= 1;
 2440 00f2 4000     		lsls	r0, r0, #1	@ tmp179, byte,
 2441 00f4 013A     		subs	r2, r2, #1	@ tmp184, ivtmp_7,
 2442 00f6 C0B2     		uxtb	r0, r0	@ byte, tmp179
 2443              	@ main.c:944: 			if (wMISO)		byte |= 0x01;
 2444 00f8 09B1     		cbz	r1, .L185	@ _51,
 2445 00fa 40F00100 		orr	r0, r0, #1	@ byte, byte,
 2446              	.L185:
 2447              	@ main.c:936: 		for(counter = 8; counter; counter--)
 2448 00fe 12F0FF02 		ands	r2, r2, #255	@ ivtmp_7, tmp184,
 2449              	@ main.c:945: 			wSCK = 1; /* a slave latches input data bit */
 2450 0102 2560     		str	r5, [r4]	@ tmp203, MEM[(volatile long unsigned int *)1109459348B]
 2451              	@ main.c:936: 		for(counter = 8; counter; counter--)
ARM GAS  /tmp/ccDfNsWv.s 			page 44


 2452 0104 EDD1     		bne	.L186	@,
 2453              	@ main.c:972: 					for(u08 i=0;i<64;i++){
 2454 0106 0BF1010B 		add	fp, fp, #1	@ tmp185, i,
 2455              	@ main.c:973: 						hex2uart(softSPI_r(i),2);
 2456 010a 0221     		movs	r1, #2	@,
 2457              	@ main.c:972: 					for(u08 i=0;i<64;i++){
 2458 010c 5FFA8BFB 		uxtb	fp, fp	@ i, tmp185
 2459              	@ main.c:973: 						hex2uart(softSPI_r(i),2);
 2460 0110 FFF7FEFF 		bl	hex2uart	@
 2461              	@ main.c:972: 					for(u08 i=0;i<64;i++){
 2462 0114 BBF1400F 		cmp	fp, #64	@ i,
 2463 0118 E0D1     		bne	.L182	@,
 2464              	@ main.c:975: 					wCS = 1;
 2465 011a 094B     		ldr	r3, .L201+24	@ tmp218,
 2466              	@ main.c:976: 					UaPutK("\r\n");
 2467 011c 0F48     		ldr	r0, .L201+52	@,
 2468              	@ main.c:975: 					wCS = 1;
 2469 011e 1D60     		str	r5, [r3]	@ tmp203, MEM[(volatile long unsigned int *)1109459344B]
 2470              	@ main.c:976: 					UaPutK("\r\n");
 2471 0120 FFF7FEFF 		bl	UaPutK	@
 2472              	@ main.c:978: 					break;
 2473 0124 95E7     		b	.L181	@
 2474              	.L202:
 2475 0126 00BF     		.align	2
 2476              	.L201:
 2477 0128 00080140 		.word	1073809408
 2478 012c 9C012142 		.word	1109459356
 2479 0130 94012142 		.word	1109459348
 2480 0134 2C000000 		.word	.LC15
 2481 0138 00000000 		.word	.LC28
 2482 013c 0C000000 		.word	.LC29
 2483 0140 90012142 		.word	1109459344
 2484 0144 18000000 		.word	.LC30
 2485 0148 1C000000 		.word	.LC31
 2486 014c 54000000 		.word	.LC32
 2487 0150 74000000 		.word	.LC33
 2488 0154 94000000 		.word	.LC34
 2489 0158 18012142 		.word	1109459224
 2490 015c 40000000 		.word	.LC18
 2491 0160 00000000 		.word	p_Fifo1
 2492              		.size	ili9486, .-ili9486
 2493              		.section	.text.wiznet5500,"ax",%progbits
 2494              		.align	1
 2495              		.p2align 2,,3
 2496              		.global	wiznet5500
 2497              		.syntax unified
 2498              		.thumb
 2499              		.thumb_func
 2500              		.fpu softvfp
 2501              		.type	wiznet5500, %function
 2502              	wiznet5500:
 2503              		@ args = 0, pretend = 0, frame = 8
 2504              		@ frame_needed = 0, uses_anonymous_args = 0
 2505 0000 2DE9F041 		push	{r4, r5, r6, r7, r8, lr}	@
 2506 0004 82B0     		sub	sp, sp, #8	@,,
 2507              	@ main.c:999: 	SPI1_init_();
 2508 0006 FFF7FEFF 		bl	SPI1_init_	@
ARM GAS  /tmp/ccDfNsWv.s 			page 45


 2509              	@ main.c:1001: 	GPIOB->CRL = (GPIOB->CRL & 0xffffff0f) | 0x00000010;	
 2510 000a 1A49     		ldr	r1, .L210	@ tmp130,
 2511              	@ main.c:1002: 	GPIOC->CRH = (GPIOC->CRH & 0xf0ffffff) | 0x01000000;	// LED Blue  PC14
 2512 000c 1A4A     		ldr	r2, .L210+4	@ tmp133,
 2513              	@ main.c:1001: 	GPIOB->CRL = (GPIOB->CRL & 0xffffff0f) | 0x00000010;	
 2514 000e 0B68     		ldr	r3, [r1]	@ _2, MEM[(struct GPIO_TypeDef *)1073810432B].CRL
 2515              	@ main.c:1075: 			if(flag_9);
 2516 0010 1A4F     		ldr	r7, .L210+8	@ tmp137,
 2517              	@ main.c:1001: 	GPIOB->CRL = (GPIOB->CRL & 0xffffff0f) | 0x00000010;	
 2518 0012 23F0F003 		bic	r3, r3, #240	@ tmp131, _2,
 2519 0016 43F01003 		orr	r3, r3, #16	@ _5, tmp131,
 2520 001a 0B60     		str	r3, [r1]	@ _5, MEM[(struct GPIO_TypeDef *)1073810432B].CRL
 2521              	@ main.c:1002: 	GPIOC->CRH = (GPIOC->CRH & 0xf0ffffff) | 0x01000000;	// LED Blue  PC14
 2522 001c 5368     		ldr	r3, [r2, #4]	@ _7, MEM[(struct GPIO_TypeDef *)1073811456B].CRH
 2523              	@ main.c:1075: 			if(flag_9);
 2524 001e 7F01     		lsls	r7, r7, #5	@ tmp138, tmp137,
 2525              	@ main.c:1002: 	GPIOC->CRH = (GPIOC->CRH & 0xf0ffffff) | 0x01000000;	// LED Blue  PC14
 2526 0020 23F07063 		bic	r3, r3, #251658240	@ tmp134, _7,
 2527 0024 43F08073 		orr	r3, r3, #16777216	@ _9, tmp134,
 2528 0028 5360     		str	r3, [r2, #4]	@ _9, MEM[(struct GPIO_TypeDef *)1073811456B].CRH
 2529              	@ main.c:1004: 	DHT_Init();
 2530 002a FFF7FEFF 		bl	DHT_Init	@
 2531 002e 144C     		ldr	r4, .L210+12	@ tmp150,
 2532              	@ main.c:1059: 		if(STCLK_MS*1000  < (trg0 - SysTick->VAL)){
 2533 0030 144D     		ldr	r5, .L210+16	@ tmp142,
 2534              	@ main.c:1062: 			if (!(DHT_read( &AMh, &AMt,1,&AM2302_pin)) ){		// AM2302 read T & H
 2535 0032 DFF85C80 		ldr	r8, .L210+28	@ tmp153,
 2536              	@ main.c:1065: 			LED^=1;
 2537 0036 144E     		ldr	r6, .L210+20	@ tmp148,
 2538              	@ main.c:1075: 			if(flag_9);
 2539 0038 2437     		adds	r7, r7, #36	@ _20, tmp138,
 2540              	.L205:
 2541              	@ main.c:1059: 		if(STCLK_MS*1000  < (trg0 - SysTick->VAL)){
 2542 003a 1449     		ldr	r1, .L210+24	@ tmp140,
 2543              	.L204:
 2544 003c 2368     		ldr	r3, [r4]	@ trg0.70_10, trg0
 2545 003e 8A68     		ldr	r2, [r1, #8]	@ _11, MEM[(struct SysTick_Type *)3758153744B].VAL
 2546 0040 9B1A     		subs	r3, r3, r2	@ tmp141, trg0.70_10, _11
 2547 0042 AB42     		cmp	r3, r5	@ tmp141, tmp142
 2548 0044 FAD9     		bls	.L204	@,
 2549              	@ main.c:1060: 			trg0 = SysTick->VAL;
 2550 0046 D1F808C0 		ldr	ip, [r1, #8]	@ _13, MEM[(struct SysTick_Type *)3758153744B].VAL
 2551              	@ main.c:1062: 			if (!(DHT_read( &AMh, &AMt,1,&AM2302_pin)) ){		// AM2302 read T & H
 2552 004a 4346     		mov	r3, r8	@, tmp153
 2553 004c 0122     		movs	r2, #1	@,
 2554 004e 0DF10601 		add	r1, sp, #6	@ tmp154,,
 2555 0052 01A8     		add	r0, sp, #4	@ tmp155,,
 2556              	@ main.c:1060: 			trg0 = SysTick->VAL;
 2557 0054 C4F800C0 		str	ip, [r4]	@ _13, trg0
 2558              	@ main.c:1062: 			if (!(DHT_read( &AMh, &AMt,1,&AM2302_pin)) ){		// AM2302 read T & H
 2559 0058 FFF7FEFF 		bl	DHT_read	@
 2560              	@ main.c:1065: 			LED^=1;
 2561 005c 3368     		ldr	r3, [r6]	@ _14, MEM[(volatile long unsigned int *)1109524916B]
 2562 005e 83F00103 		eor	r3, r3, #1	@ _15, _14,
 2563 0062 3360     		str	r3, [r6]	@ _15, MEM[(volatile long unsigned int *)1109524916B]
 2564              	@ main.c:1075: 			if(flag_9);
 2565 0064 3B68     		ldr	r3, [r7]	@ _21, *_20
ARM GAS  /tmp/ccDfNsWv.s 			page 46


 2566 0066 002B     		cmp	r3, #0	@ _21
 2567 0068 E7D1     		bne	.L205	@
 2568              	@ main.c:1079: 			flag_9 ^=1;
 2569 006a 3B68     		ldr	r3, [r7]	@ _22, *_20
 2570 006c 83F00103 		eor	r3, r3, #1	@ _23, _22,
 2571 0070 3B60     		str	r3, [r7]	@ _23, *_20
 2572 0072 E2E7     		b	.L205	@
 2573              	.L211:
 2574              		.align	2
 2575              	.L210:
 2576 0074 000C0140 		.word	1073810432
 2577 0078 00100140 		.word	1073811456
 2578 007c 00001001 		.word	.LANCHOR8+17825792
 2579 0080 00000000 		.word	trg0
 2580 0084 40548900 		.word	9000000
 2581 0088 B4012242 		.word	1109524916
 2582 008c 10E000E0 		.word	-536813552
 2583 0090 3C012142 		.word	1109459260
 2584              		.size	wiznet5500, .-wiznet5500
 2585              		.section	.text.uv_meter,"ax",%progbits
 2586              		.align	1
 2587              		.p2align 2,,3
 2588              		.global	uv_meter
 2589              		.syntax unified
 2590              		.thumb
 2591              		.thumb_func
 2592              		.fpu softvfp
 2593              		.type	uv_meter, %function
 2594              	uv_meter:
 2595              		@ args = 0, pretend = 0, frame = 264
 2596              		@ frame_needed = 0, uses_anonymous_args = 0
 2597 0000 F0B5     		push	{r4, r5, r6, r7, lr}	@
 2598              	@ main.c:1093: 		PB10_o = 1;
 2599 0002 0124     		movs	r4, #1	@ tmp126,
 2600              	@ main.c:1091: 		GPIOA->CRL = (GPIOA->CRL & 0x000fffff) | 0xaa000000; // ADC12_IN5		
 2601 0004 1C4A     		ldr	r2, .L221	@ tmp121,
 2602              	@ main.c:1093: 		PB10_o = 1;
 2603 0006 1D48     		ldr	r0, .L221+4	@ tmp125,
 2604              	@ main.c:1091: 		GPIOA->CRL = (GPIOA->CRL & 0x000fffff) | 0xaa000000; // ADC12_IN5		
 2605 0008 1368     		ldr	r3, [r2]	@ _2, MEM[(struct GPIO_TypeDef *)1073809408B].CRL
 2606              	@ main.c:1094: 		LED = 1;
 2607 000a 1D49     		ldr	r1, .L221+8	@ tmp127,
 2608              	@ main.c:1091: 		GPIOA->CRL = (GPIOA->CRL & 0x000fffff) | 0xaa000000; // ADC12_IN5		
 2609 000c C3F31303 		ubfx	r3, r3, #0, #20	@ tmp122, _2,,
 2610 0010 43F02A43 		orr	r3, r3, #-1442840576	@ _4, tmp122,
 2611 0014 1360     		str	r3, [r2]	@ _4, MEM[(struct GPIO_TypeDef *)1073809408B].CRL
 2612              	@ main.c:1086: void uv_meter(void)			{
 2613 0016 C3B0     		sub	sp, sp, #268	@,,
 2614              	@ main.c:1093: 		PB10_o = 1;
 2615 0018 0460     		str	r4, [r0]	@ tmp126, MEM[(volatile long unsigned int *)1109492136B]
 2616              	@ main.c:1094: 		LED = 1;
 2617 001a 0C60     		str	r4, [r1]	@ tmp126, MEM[(volatile long unsigned int *)1109524916B]
 2618              	@ main.c:1095: 		I2C2_init();
 2619 001c FFF7FEFF 		bl	I2C2_init	@
 2620              	@ main.c:1102: 		ADC1->SQR3 = ( 5<<0*5 );		//(channel<<sequence*5) sequence=0..5   
 2621 0020 0527     		movs	r7, #5	@ tmp140,
 2622              	@ main.c:5231: 		RCC_APB2RSTR_ADC1RST_bb = 0;
ARM GAS  /tmp/ccDfNsWv.s 			page 47


 2623 0022 0022     		movs	r2, #0	@ tmp136,
 2624              	@ main.c:1103: 		ADC1->SMPR2 = (4<<5*3 );
 2625 0024 4FF40036 		mov	r6, #131072	@ tmp142,
 2626              	@ main.c:1104: 		ADC1->CR1 = ADC_CR1_SCAN;			// multi channel mode		
 2627 0028 4FF48070 		mov	r0, #256	@ tmp144,
 2628              	@ main.c:5228: 		RCC->APB2ENR   |= RCC_APB2ENR_ADC1EN;	// enable clock for ADC1
 2629 002c 154B     		ldr	r3, .L221+12	@ tmp129,
 2630              	@ main.c:1122: 			b=0;
 2631 002e 1546     		mov	r5, r2	@ tmp153, tmp136
 2632              	@ main.c:5228: 		RCC->APB2ENR   |= RCC_APB2ENR_ADC1EN;	// enable clock for ADC1
 2633 0030 9969     		ldr	r1, [r3, #24]	@ _22, MEM[(struct RCC_TypeDef *)1073876992B].APB2ENR
 2634 0032 41F40071 		orr	r1, r1, #512	@ _23, _22,
 2635 0036 9961     		str	r1, [r3, #24]	@ _23, MEM[(struct RCC_TypeDef *)1073876992B].APB2ENR
 2636              	@ main.c:5229: 		RCC->CFGR 		 |= RCC_CFGR_ADCPRE_DIV4;  // 2/4/6/8 str98
 2637 0038 5968     		ldr	r1, [r3, #4]	@ _24, MEM[(struct RCC_TypeDef *)1073876992B].CFGR
 2638 003a 41F48041 		orr	r1, r1, #16384	@ _25, _24,
 2639 003e 5960     		str	r1, [r3, #4]	@ _25, MEM[(struct RCC_TypeDef *)1073876992B].CFGR
 2640              	@ main.c:5230: 		RCC_APB2RSTR_ADC1RST_bb = 1;		// Reset ADC1
 2641 0040 1149     		ldr	r1, .L221+16	@ tmp133,
 2642              	@ main.c:1101: 		ADC1->SQR1 = ( 0<<20 	); 		//length and sequence 12..15 conversion 13-16 on channe
 2643 0042 A3F56C43 		sub	r3, r3, #60416	@ tmp137, tmp137,
 2644              	@ main.c:5230: 		RCC_APB2RSTR_ADC1RST_bb = 1;		// Reset ADC1
 2645 0046 0C60     		str	r4, [r1]	@ tmp126, MEM[(volatile long unsigned int *)1111622052B]
 2646              	@ main.c:5231: 		RCC_APB2RSTR_ADC1RST_bb = 0;
 2647 0048 0A60     		str	r2, [r1]	@ tmp136, MEM[(volatile long unsigned int *)1111622052B]
 2648              	@ main.c:1101: 		ADC1->SQR1 = ( 0<<20 	); 		//length and sequence 12..15 conversion 13-16 on channe
 2649 004a DA62     		str	r2, [r3, #44]	@ tmp136, MEM[(struct ADC_TypeDef *)1073816576B].SQR1
 2650              	@ main.c:1102: 		ADC1->SQR3 = ( 5<<0*5 );		//(channel<<sequence*5) sequence=0..5   
 2651 004c 5F63     		str	r7, [r3, #52]	@ tmp140, MEM[(struct ADC_TypeDef *)1073816576B].SQR3
 2652              	@ main.c:1103: 		ADC1->SMPR2 = (4<<5*3 );
 2653 004e 1E61     		str	r6, [r3, #16]	@ tmp142, MEM[(struct ADC_TypeDef *)1073816576B].SMPR2
 2654              	@ main.c:1104: 		ADC1->CR1 = ADC_CR1_SCAN;			// multi channel mode		
 2655 0050 5860     		str	r0, [r3, #4]	@ tmp144, MEM[(struct ADC_TypeDef *)1073816576B].CR1
 2656              	@ main.c:1105: 		ADC1->CR2 |= ADC_CR2_ADON ;		// On ADC
 2657 0052 9A68     		ldr	r2, [r3, #8]	@ _5, MEM[(struct ADC_TypeDef *)1073816576B].CR2
 2658              	@ main.c:1113: 			while(PB0_i==0);
 2659 0054 0D4C     		ldr	r4, .L221+20	@ tmp147,
 2660              	@ main.c:1105: 		ADC1->CR2 |= ADC_CR2_ADON ;		// On ADC
 2661 0056 42F00102 		orr	r2, r2, #1	@ _6, _5,
 2662 005a 9A60     		str	r2, [r3, #8]	@ _6, MEM[(struct ADC_TypeDef *)1073816576B].CR2
 2663              	.L213:
 2664              	@ main.c:1113: 			while(PB0_i==0);
 2665 005c 2368     		ldr	r3, [r4]	@ _7, MEM[(volatile long unsigned int *)1109491968B]
 2666 005e 002B     		cmp	r3, #0	@ _7
 2667 0060 FCD0     		beq	.L213	@
 2668              	@ main.c:1117: 			i2c2_scan(a,&b);
 2669 0062 0DF10701 		add	r1, sp, #7	@ tmp157,,
 2670 0066 02A8     		add	r0, sp, #8	@ tmp158,,
 2671 0068 FFF7FEFF 		bl	i2c2_scan	@
 2672              	.L214:
 2673              	@ main.c:1121: 			while(PB0_i==1);
 2674 006c 2368     		ldr	r3, [r4]	@ _8, MEM[(volatile long unsigned int *)1109491968B]
 2675 006e 012B     		cmp	r3, #1	@ _8,
 2676 0070 FCD0     		beq	.L214	@,
 2677              	@ main.c:1122: 			b=0;
 2678 0072 8DF80750 		strb	r5, [sp, #7]	@ tmp153, b
 2679              	@ main.c:1113: 			while(PB0_i==0);
ARM GAS  /tmp/ccDfNsWv.s 			page 48


 2680 0076 F1E7     		b	.L213	@
 2681              	.L222:
 2682              		.align	2
 2683              	.L221:
 2684 0078 00080140 		.word	1073809408
 2685 007c A8812142 		.word	1109492136
 2686 0080 B4012242 		.word	1109524916
 2687 0084 00100240 		.word	1073876992
 2688 0088 A4014242 		.word	1111622052
 2689 008c 00812142 		.word	1109491968
 2690              		.size	uv_meter, .-uv_meter
 2691              		.section	.text.IRQLoraInit,"ax",%progbits
 2692              		.align	1
 2693              		.p2align 2,,3
 2694              		.global	IRQLoraInit
 2695              		.syntax unified
 2696              		.thumb
 2697              		.thumb_func
 2698              		.fpu softvfp
 2699              		.type	IRQLoraInit, %function
 2700              	IRQLoraInit:
 2701              		@ args = 0, pretend = 0, frame = 0
 2702              		@ frame_needed = 0, uses_anonymous_args = 0
 2703              		@ link register save eliminated.
 2704              	@ main.c:1162: 		AFIO->EXTICR[0] = AFIO_EXTICR1_EXTI0_PB;		// Enable interrupt port PA0
 2705 0000 0123     		movs	r3, #1	@ tmp111,
 2706              	@ ./inc/core_cm3.h:1504:   NVIC->ISER[((uint32_t)(IRQn) >> 5)] = (1 << ((uint32_t)(IRQn) & 0x1F)); 
 2707 0002 4020     		movs	r0, #64	@ tmp119,
 2708              	@ main.c:1153: void IRQLoraInit(void)	{
 2709 0004 10B4     		push	{r4}	@
 2710              	@ main.c:1163: 		EXTI->PR   = EXTI_PR_PR0;			// Clear interupt request EXTI0
 2711 0006 054A     		ldr	r2, .L225	@ tmp112,
 2712              	@ main.c:1162: 		AFIO->EXTICR[0] = AFIO_EXTICR1_EXTI0_PB;		// Enable interrupt port PA0
 2713 0008 054C     		ldr	r4, .L225+4	@ tmp110,
 2714              	@ ./inc/core_cm3.h:1504:   NVIC->ISER[((uint32_t)(IRQn) >> 5)] = (1 << ((uint32_t)(IRQn) & 0x1F)); 
 2715 000a 0649     		ldr	r1, .L225+8	@ tmp118,
 2716              	@ main.c:1162: 		AFIO->EXTICR[0] = AFIO_EXTICR1_EXTI0_PB;		// Enable interrupt port PA0
 2717 000c A360     		str	r3, [r4, #8]	@ tmp111, MEM[(struct AFIO_TypeDef *)1073807360B].EXTICR
 2718              	@ main.c:1163: 		EXTI->PR   = EXTI_PR_PR0;			// Clear interupt request EXTI0
 2719 000e 5361     		str	r3, [r2, #20]	@ tmp111, MEM[(struct EXTI_TypeDef *)1073808384B].PR
 2720              	@ main.c:1168: 	}
 2721 0010 10BC     		pop	{r4}	@
 2722              	@ main.c:1164: 		EXTI->RTSR 	 = EXTI_RTSR_TR0;
 2723 0012 9360     		str	r3, [r2, #8]	@ tmp111, MEM[(struct EXTI_TypeDef *)1073808384B].RTSR
 2724              	@ main.c:1166: 		EXTI->IMR  =  EXTI_IMR_MR0;		// Interrupt mask register EXTI_IMR
 2725 0014 1360     		str	r3, [r2]	@ tmp111, MEM[(struct EXTI_TypeDef *)1073808384B].IMR
 2726              	@ ./inc/core_cm3.h:1504:   NVIC->ISER[((uint32_t)(IRQn) >> 5)] = (1 << ((uint32_t)(IRQn) & 0x1F)); 
 2727 0016 0860     		str	r0, [r1]	@ tmp119, MEM[(struct NVIC_Type *)3758153984B].ISER
 2728              	@ main.c:1168: 	}
 2729 0018 7047     		bx	lr	@
 2730              	.L226:
 2731 001a 00BF     		.align	2
 2732              	.L225:
 2733 001c 00040140 		.word	1073808384
 2734 0020 00000140 		.word	1073807360
 2735 0024 00E100E0 		.word	-536813312
 2736              		.size	IRQLoraInit, .-IRQLoraInit
ARM GAS  /tmp/ccDfNsWv.s 			page 49


 2737              		.section	.text.LoRaRX,"ax",%progbits
 2738              		.align	1
 2739              		.p2align 2,,3
 2740              		.global	LoRaRX
 2741              		.syntax unified
 2742              		.thumb
 2743              		.thumb_func
 2744              		.fpu softvfp
 2745              		.type	LoRaRX, %function
 2746              	LoRaRX:
 2747              		@ args = 0, pretend = 0, frame = 80
 2748              		@ frame_needed = 0, uses_anonymous_args = 0
 2749 0000 2DE9F04F 		push	{r4, r5, r6, r7, r8, r9, r10, fp, lr}	@
 2750              	@ main.c:1198: 		SX1278_begin(&SX1278_1, SX1278_433MHZ, SX1278_POWER_11DBM, SX1278_LORA_SF_7,SX1278
 2751 0004 0926     		movs	r6, #9	@ tmp180,
 2752 0006 0022     		movs	r2, #0	@,
 2753              	@ main.c:1188: 		GPIOA->CRL = (GPIOA->CRL & 0xfff00000) | 0x00044343;	//   PA2=MOSI, PA1=MISO, PA0=
 2754 0008 4E4C     		ldr	r4, .L237	@ tmp157,
 2755 000a 4F49     		ldr	r1, .L237+4	@ _3,
 2756 000c 2368     		ldr	r3, [r4]	@ _1, MEM[(struct GPIO_TypeDef *)1073809408B].CRL
 2757              	@ main.c:1189: 		GPIOB->CRH = (GPIOB->CRH & 0xffffff00) | 0x00000033;	//   
 2758 000e 4F48     		ldr	r0, .L237+8	@ tmp162,
 2759              	@ main.c:1188: 		GPIOA->CRL = (GPIOA->CRL & 0xfff00000) | 0x00044343;	//   PA2=MOSI, PA1=MISO, PA0=
 2760 0010 1B0D     		lsrs	r3, r3, #20	@ tmp158, _1,
 2761 0012 1B05     		lsls	r3, r3, #20	@ tmp158, tmp158,
 2762 0014 1943     		orrs	r1, r1, r3	@, _3, _3, tmp158
 2763 0016 2160     		str	r1, [r4]	@ _3, MEM[(struct GPIO_TypeDef *)1073809408B].CRL
 2764              	@ main.c:1189: 		GPIOB->CRH = (GPIOB->CRH & 0xffffff00) | 0x00000033;	//   
 2765 0018 4368     		ldr	r3, [r0, #4]	@ _4, MEM[(struct GPIO_TypeDef *)1073810432B].CRH
 2766              	@ main.c:1190: 		SX1278_hw1.mosi = (u32 *)m_BITBAND_PERIPH(&GPIOA->ODR, 2); 
 2767 001a 4D4F     		ldr	r7, .L237+12	@ tmp242,
 2768              	@ main.c:1189: 		GPIOB->CRH = (GPIOB->CRH & 0xffffff00) | 0x00000033;	//   
 2769 001c 23F0FF03 		bic	r3, r3, #255	@ tmp163, _4,
 2770              	@ main.c:1169: void LoRaRX(void)				{
 2771 0020 97B0     		sub	sp, sp, #92	@,,
 2772              	@ main.c:1189: 		GPIOB->CRH = (GPIOB->CRH & 0xffffff00) | 0x00000033;	//   
 2773 0022 43F03303 		orr	r3, r3, #51	@ _6, tmp163,
 2774              	@ main.c:1191: 		SX1278_hw1.miso = (u32 *)m_BITBAND_PERIPH(&GPIOA->IDR, 1); 
 2775 0026 4B4C     		ldr	r4, .L237+16	@ tmp168,
 2776              	@ main.c:1189: 		GPIOB->CRH = (GPIOB->CRH & 0xffffff00) | 0x00000033;	//   
 2777 0028 4360     		str	r3, [r0, #4]	@ _6, MEM[(struct GPIO_TypeDef *)1073810432B].CRH
 2778              	@ main.c:1197: 		SX1278_1.hw = &SX1278_hw1;			// wybor modulu		
 2779 002a 4B4D     		ldr	r5, .L237+20	@ tmp177,
 2780              	@ main.c:1198: 		SX1278_begin(&SX1278_1, SX1278_433MHZ, SX1278_POWER_11DBM, SX1278_LORA_SF_7,SX1278
 2781 002c 0096     		str	r6, [sp]	@ tmp180,
 2782              	@ main.c:1192: 		SX1278_hw1.sck  = (u32 *)m_BITBAND_PERIPH(&GPIOA->ODR, 0); 
 2783 002e DFF844E1 		ldr	lr, .L237+48	@ tmp170,
 2784              	@ main.c:1193: 		SX1278_hw1.nss  = (u32 *)m_BITBAND_PERIPH(&GPIOB->ODR, 8); 
 2785 0032 DFF844C1 		ldr	ip, .L237+52	@ tmp172,
 2786              	@ main.c:1190: 		SX1278_hw1.mosi = (u32 *)m_BITBAND_PERIPH(&GPIOA->ODR, 2); 
 2787 0036 DFF84481 		ldr	r8, .L237+56	@ tmp166,
 2788              	@ main.c:1194: 		SX1278_hw1.rst  = (u32 *)m_BITBAND_PERIPH(&GPIOB->ODR, 9); 
 2789 003a 484E     		ldr	r6, .L237+24	@ tmp174,
 2790              	@ main.c:1191: 		SX1278_hw1.miso = (u32 *)m_BITBAND_PERIPH(&GPIOA->IDR, 1); 
 2791 003c 7C60     		str	r4, [r7, #4]	@ tmp168, SX1278_hw1.miso
 2792              	@ main.c:1195: 		SX1278_hw1.dio0 = (u32 *)m_BITBAND_PERIPH(&GPIOB->IDR, 1); 
 2793 003e 04F50044 		add	r4, r4, #32768	@ tmp176, tmp176,
ARM GAS  /tmp/ccDfNsWv.s 			page 50


 2794              	@ main.c:1198: 		SX1278_begin(&SX1278_1, SX1278_433MHZ, SX1278_POWER_11DBM, SX1278_LORA_SF_7,SX1278
 2795 0042 1146     		mov	r1, r2	@,
 2796 0044 0123     		movs	r3, #1	@,
 2797              	@ main.c:1194: 		SX1278_hw1.rst  = (u32 *)m_BITBAND_PERIPH(&GPIOB->ODR, 9); 
 2798 0046 C7E903C6 		strd	ip, r6, [r7, #12]	@ tmp172, tmp174, tmp242,
 2799              	@ main.c:1198: 		SX1278_begin(&SX1278_1, SX1278_433MHZ, SX1278_POWER_11DBM, SX1278_LORA_SF_7,SX1278
 2800 004a 2846     		mov	r0, r5	@, tmp177
 2801              	@ main.c:1190: 		SX1278_hw1.mosi = (u32 *)m_BITBAND_PERIPH(&GPIOA->ODR, 2); 
 2802 004c C7F80080 		str	r8, [r7]	@ tmp166, SX1278_hw1.mosi
 2803              	@ main.c:1192: 		SX1278_hw1.sck  = (u32 *)m_BITBAND_PERIPH(&GPIOA->ODR, 0); 
 2804 0050 C7F808E0 		str	lr, [r7, #8]	@ tmp170, SX1278_hw1.sck
 2805              	@ main.c:1195: 		SX1278_hw1.dio0 = (u32 *)m_BITBAND_PERIPH(&GPIOB->IDR, 1); 
 2806 0054 7C61     		str	r4, [r7, #20]	@ tmp176, SX1278_hw1.dio0
 2807              	@ main.c:1197: 		SX1278_1.hw = &SX1278_hw1;			// wybor modulu		
 2808 0056 2F60     		str	r7, [r5]	@ tmp242, SX1278_1.hw
 2809              	@ main.c:1198: 		SX1278_begin(&SX1278_1, SX1278_433MHZ, SX1278_POWER_11DBM, SX1278_LORA_SF_7,SX1278
 2810 0058 FFF7FEFF 		bl	SX1278_begin	@
 2811              	@ main.c:1205: 		ret = SX1278_LoRaEntryRx(&SX1278_1, 7, 2000);
 2812 005c 4FF4FA62 		mov	r2, #2000	@,
 2813 0060 2846     		mov	r0, r5	@, tmp177
 2814 0062 0721     		movs	r1, #7	@,
 2815 0064 FFF7FEFF 		bl	SX1278_LoRaEntryRx	@
 2816              	@ main.c:1229: 		flag_10=0;
 2817 0068 0022     		movs	r2, #0	@ tmp187,
 2818              	@ main.c:1261: 				SX1278_LoRaRx(&SX1278_1);  // Odczyt danych do buforw
 2819 006a A946     		mov	r9, r5	@ tmp245, tmp177
 2820              	@ main.c:1222: 		trg1  = SysTick->VAL;
 2821 006c 3C4B     		ldr	r3, .L237+28	@ tmp182,
 2822              	@ main.c:1229: 		flag_10=0;
 2823 006e 3D4C     		ldr	r4, .L237+32	@ tmp185,
 2824              	@ main.c:1319: 					trg1  = SysTick->VAL;
 2825 0070 9A46     		mov	r10, r3	@ tmp247, tmp182
 2826              	@ main.c:1222: 		trg1  = SysTick->VAL;
 2827 0072 3D4E     		ldr	r6, .L237+36	@ tmp243,
 2828 0074 9B68     		ldr	r3, [r3, #8]	@ _7, MEM[(struct SysTick_Type *)3758153744B].VAL
 2829              	@ main.c:1229: 		flag_10=0;
 2830 0076 6401     		lsls	r4, r4, #5	@ tmp186, tmp185,
 2831              	@ main.c:1318: 					LED = 0;
 2832 0078 DFF804B1 		ldr	fp, .L237+60	@ tmp246,
 2833              	@ main.c:1222: 		trg1  = SysTick->VAL;
 2834 007c 3360     		str	r3, [r6]	@ _7, trg1
 2835 007e 05F10A08 		add	r8, r5, #10	@ tmp244, tmp177,
 2836              	@ main.c:1229: 		flag_10=0;
 2837 0082 A262     		str	r2, [r4, #40]	@ tmp187, *_12
 2838 0084 2834     		adds	r4, r4, #40	@ _12, tmp186,
 2839              	.L228:
 2840              	@ main.c:1253: 			if( (flag_10==0) && *SX1278_hw1.dio0==1 )  {
 2841 0086 2568     		ldr	r5, [r4]	@ _25, *_12
 2842 0088 1DB9     		cbnz	r5, .L229	@ _25,
 2843              	@ main.c:1253: 			if( (flag_10==0) && *SX1278_hw1.dio0==1 )  {
 2844 008a 7B69     		ldr	r3, [r7, #20]	@ _26, SX1278_hw1.dio0
 2845 008c 1B68     		ldr	r3, [r3]	@ _27, *_26
 2846 008e 012B     		cmp	r3, #1	@ _27,
 2847 0090 1DD0     		beq	.L236	@,
 2848              	.L229:
 2849              	@ main.c:1324: 			if(flag_10 && (*SX1278_hw1.dio0)==0 ) { flag_10=0; }
 2850 0092 2368     		ldr	r3, [r4]	@ _49, *_12
ARM GAS  /tmp/ccDfNsWv.s 			page 51


 2851              	@ main.c:1326: 			if((STCLK_MS*300 < (trg1 - SysTick->VAL)) && LED==0){	
 2852 0094 354A     		ldr	r2, .L237+40	@ tmp235,
 2853              	@ main.c:1324: 			if(flag_10 && (*SX1278_hw1.dio0)==0 ) { flag_10=0; }
 2854 0096 1BB1     		cbz	r3, .L230	@ _49,
 2855              	@ main.c:1324: 			if(flag_10 && (*SX1278_hw1.dio0)==0 ) { flag_10=0; }
 2856 0098 7B69     		ldr	r3, [r7, #20]	@ _50, SX1278_hw1.dio0
 2857 009a 1B68     		ldr	r3, [r3]	@ _51, *_50
 2858 009c 03B9     		cbnz	r3, .L230	@ _51,
 2859              	@ main.c:1324: 			if(flag_10 && (*SX1278_hw1.dio0)==0 ) { flag_10=0; }
 2860 009e 2360     		str	r3, [r4]	@ _51, *_12
 2861              	.L230:
 2862              	@ main.c:1326: 			if((STCLK_MS*300 < (trg1 - SysTick->VAL)) && LED==0){	
 2863 00a0 3368     		ldr	r3, [r6]	@ trg1.82_52, trg1
 2864 00a2 DAF80810 		ldr	r1, [r10, #8]	@ _53, MEM[(struct SysTick_Type *)3758153744B].VAL
 2865 00a6 5B1A     		subs	r3, r3, r1	@ tmp234, trg1.82_52, _53
 2866 00a8 9342     		cmp	r3, r2	@ tmp234, tmp235
 2867 00aa ECD9     		bls	.L228	@,
 2868              	@ main.c:1326: 			if((STCLK_MS*300 < (trg1 - SysTick->VAL)) && LED==0){	
 2869 00ac DBF80030 		ldr	r3, [fp]	@ _55, MEM[(volatile long unsigned int *)1109524916B]
 2870 00b0 002B     		cmp	r3, #0	@ _55
 2871 00b2 E8D1     		bne	.L228	@
 2872              	@ main.c:1329: 				LED = 1;
 2873 00b4 0123     		movs	r3, #1	@ tmp240,
 2874              	@ main.c:1327: 					trg1  = SysTick->VAL;
 2875 00b6 DAF80820 		ldr	r2, [r10, #8]	@ _56, MEM[(struct SysTick_Type *)3758153744B].VAL
 2876 00ba 3260     		str	r2, [r6]	@ _56, trg1
 2877              	@ main.c:1329: 				LED = 1;
 2878 00bc CBF80030 		str	r3, [fp]	@ tmp240, MEM[(volatile long unsigned int *)1109524916B]
 2879              	@ main.c:1253: 			if( (flag_10==0) && *SX1278_hw1.dio0==1 )  {
 2880 00c0 2568     		ldr	r5, [r4]	@ _25, *_12
 2881 00c2 002D     		cmp	r5, #0	@ _25
 2882 00c4 E5D1     		bne	.L229	@
 2883 00c6 7B69     		ldr	r3, [r7, #20]	@ _26, SX1278_hw1.dio0
 2884 00c8 1B68     		ldr	r3, [r3]	@ _27, *_26
 2885 00ca 012B     		cmp	r3, #1	@ _27,
 2886 00cc E1D1     		bne	.L229	@,
 2887              	.L236:
 2888              	@ main.c:1261: 				SX1278_LoRaRx(&SX1278_1);  // Odczyt danych do buforw
 2889 00ce 4846     		mov	r0, r9	@, tmp245
 2890 00d0 0593     		str	r3, [sp, #20]	@ _27, %sfp
 2891 00d2 FFF7FEFF 		bl	SX1278_LoRaRx	@
 2892              	@ main.c:1271: 				prssi = SX1278_SPIRead(&SX1278_1, LR_RegPktRssiValue)-164;
 2893 00d6 1A21     		movs	r1, #26	@,
 2894 00d8 4846     		mov	r0, r9	@, tmp245
 2895 00da FFF7FEFF 		bl	SX1278_SPIRead	@
 2896              	@ main.c:1278: 				memcpy(buf_rx, SX1278_1.rxBuffer, 7);
 2897 00de B8F80420 		ldrh	r2, [r8, #4]	@ unaligned	@ tmp198, MEM[(void *)&SX1278_1 + 10B]
 2898 00e2 D8F80000 		ldr	r0, [r8]	@ unaligned	@, MEM[(void *)&SX1278_1 + 10B]
 2899 00e6 ADF81C20 		strh	r2, [sp, #28]	@ unaligned	@ tmp198, MEM[(void *)&buf_rx]
 2900              	@ main.c:1285: 				Cnt= (s16)(buf_rx[4]+(buf_rx[5]<<8));
 2901 00ea 9DF81D10 		ldrb	r1, [sp, #29]	@ zero_extendqisi2	@ buf_rx, buf_rx
 2902 00ee 9DF81C20 		ldrb	r2, [sp, #28]	@ zero_extendqisi2	@ buf_rx, buf_rx
 2903              	@ main.c:1278: 				memcpy(buf_rx, SX1278_1.rxBuffer, 7);
 2904 00f2 98F806C0 		ldrb	ip, [r8, #6]	@ zero_extendqisi2	@ MEM[(void *)&SX1278_1 + 10B], MEM[(void *)&SX1278_1 + 10B]
 2905              	@ main.c:1285: 				Cnt= (s16)(buf_rx[4]+(buf_rx[5]<<8));
 2906 00f6 02EB0122 		add	r2, r2, r1, lsl #8	@ tmp215, buf_rx, buf_rx,
 2907 00fa 92B2     		uxth	r2, r2	@ Cnt, tmp215
ARM GAS  /tmp/ccDfNsWv.s 			page 52


 2908              	@ main.c:1284: 				t2 = (s16)(buf_rx[2]+(buf_rx[3]<<8));
 2909 00fc 0114     		asrs	r1, r0, #16	@ t2,,
 2910              	@ main.c:1278: 				memcpy(buf_rx, SX1278_1.rxBuffer, 7);
 2911 00fe 0690     		str	r0, [sp, #24]	@, MEM[(void *)&buf_rx]
 2912              	@ main.c:1292: 					sint2uart(t1);	//UaPutK("  ");
 2913 0100 00B2     		sxth	r0, r0	@,
 2914              	@ main.c:1278: 				memcpy(buf_rx, SX1278_1.rxBuffer, 7);
 2915 0102 8DF81EC0 		strb	ip, [sp, #30]	@ MEM[(void *)&SX1278_1 + 10B], MEM[(void *)&buf_rx]
 2916              	@ main.c:1285: 				Cnt= (s16)(buf_rx[4]+(buf_rx[5]<<8));
 2917 0106 0392     		str	r2, [sp, #12]	@ Cnt, %sfp
 2918              	@ main.c:1284: 				t2 = (s16)(buf_rx[2]+(buf_rx[3]<<8));
 2919 0108 0491     		str	r1, [sp, #16]	@ t2, %sfp
 2920              	@ main.c:1277: 				buf_rx[7] = 0;
 2921 010a 8DF81F50 		strb	r5, [sp, #31]	@ _25, buf_rx
 2922              	@ main.c:1292: 					sint2uart(t1);	//UaPutK("  ");
 2923 010e FFF7FEFF 		bl	sint2uart	@
 2924              	@ main.c:1293: 					UaPutC(',');					
 2925 0112 2C20     		movs	r0, #44	@,
 2926 0114 FFF7FEFF 		bl	UaPutC	@
 2927              	@ main.c:1294: 					sint2uart(t2);	//UaPutK("  ");
 2928 0118 0499     		ldr	r1, [sp, #16]	@ t2, %sfp
 2929 011a 0846     		mov	r0, r1	@, t2
 2930 011c FFF7FEFF 		bl	sint2uart	@
 2931              	@ main.c:1295: 					UaPutC(',');					
 2932 0120 2C20     		movs	r0, #44	@,
 2933 0122 FFF7FEFF 		bl	UaPutC	@
 2934              	@ main.c:1296: 					sint2uart(Cnt);	//UaPutK("  ");
 2935 0126 039A     		ldr	r2, [sp, #12]	@ Cnt, %sfp
 2936 0128 1046     		mov	r0, r2	@, Cnt
 2937 012a FFF7FEFF 		bl	sint2uart	@
 2938              	@ main.c:1297: 					UaPutS("\n");					
 2939 012e 1048     		ldr	r0, .L237+44	@,
 2940 0130 FFF7FEFF 		bl	UaPutS	@
 2941              	@ main.c:1318: 					LED = 0;
 2942 0134 CBF80050 		str	r5, [fp]	@ _25, MEM[(volatile long unsigned int *)1109524916B]
 2943              	@ main.c:1319: 					trg1  = SysTick->VAL;
 2944 0138 DAF80820 		ldr	r2, [r10, #8]	@ _48, MEM[(struct SysTick_Type *)3758153744B].VAL
 2945              	@ main.c:1321: 				flag_10 = 1;
 2946 013c 059B     		ldr	r3, [sp, #20]	@ _27, %sfp
 2947              	@ main.c:1319: 					trg1  = SysTick->VAL;
 2948 013e 3260     		str	r2, [r6]	@ _48, trg1
 2949              	@ main.c:1321: 				flag_10 = 1;
 2950 0140 2360     		str	r3, [r4]	@ _27, *_12
 2951 0142 A6E7     		b	.L229	@
 2952              	.L238:
 2953              		.align	2
 2954              	.L237:
 2955 0144 00080140 		.word	1073809408
 2956 0148 43430400 		.word	279363
 2957 014c 000C0140 		.word	1073810432
 2958 0150 00000000 		.word	.LANCHOR9
 2959 0154 04012142 		.word	1109459204
 2960 0158 00000000 		.word	.LANCHOR10
 2961 015c A4812142 		.word	1109492132
 2962 0160 10E000E0 		.word	-536813552
 2963 0164 00001001 		.word	.LANCHOR8+17825792
 2964 0168 00000000 		.word	trg1
ARM GAS  /tmp/ccDfNsWv.s 			page 53


 2965 016c E0322900 		.word	2700000
 2966 0170 00000000 		.word	.LC35
 2967 0174 80012142 		.word	1109459328
 2968 0178 A0812142 		.word	1109492128
 2969 017c 88012142 		.word	1109459336
 2970 0180 B4012242 		.word	1109524916
 2971              		.size	LoRaRX, .-LoRaRX
 2972              		.section	.text.LoRaRX1,"ax",%progbits
 2973              		.align	1
 2974              		.p2align 2,,3
 2975              		.global	LoRaRX1
 2976              		.syntax unified
 2977              		.thumb
 2978              		.thumb_func
 2979              		.fpu softvfp
 2980              		.type	LoRaRX1, %function
 2981              	LoRaRX1:
 2982              		@ args = 0, pretend = 0, frame = 24
 2983              		@ frame_needed = 0, uses_anonymous_args = 0
 2984              	@ main.c:1363: 		SX1278_begin(&SX1278_1,sx[0],sx[1],sx[2],sx[3]);
 2985 0000 0022     		movs	r2, #0	@,
 2986              	@ main.c:1334: void LoRaRX1(void)	{
 2987 0002 2DE9F04F 		push	{r4, r5, r6, r7, r8, r9, r10, fp, lr}	@
 2988              	@ main.c:1344: 		p_Fifo1->rct=1;	p_Fifo1->rwi=1;	p_Fifo1->rbuf[0]='0';
 2989 0006 3021     		movs	r1, #48	@ tmp169,
 2990 0008 4FF00109 		mov	r9, #1	@ tmp166,
 2991              	@ main.c:1363: 		SX1278_begin(&SX1278_1,sx[0],sx[1],sx[2],sx[3]);
 2992 000c 4FF0090A 		mov	r10, #9	@ tmp192,
 2993              	@ main.c:1371: 		flag_9=0;
 2994 0010 1746     		mov	r7, r2	@ tmp197,
 2995              	@ main.c:1344: 		p_Fifo1->rct=1;	p_Fifo1->rwi=1;	p_Fifo1->rbuf[0]='0';
 2996 0012 DFF89082 		ldr	r8, .L265+108	@ tmp257,
 2997              	@ main.c:1345: 		LED=1;
 2998 0016 884D     		ldr	r5, .L265	@ tmp171,
 2999              	@ main.c:1344: 		p_Fifo1->rct=1;	p_Fifo1->rwi=1;	p_Fifo1->rbuf[0]='0';
 3000 0018 D8F80030 		ldr	r3, [r8]	@ p_Fifo1.83_1, p_Fifo1
 3001              	@ main.c:1348: 		GPIOB->CRH = (GPIOB->CRH & 0x0000ff00) | 0x43430033;	//   
 3002 001c 8748     		ldr	r0, .L265+4	@ tmp173,
 3003              	@ main.c:1344: 		p_Fifo1->rct=1;	p_Fifo1->rwi=1;	p_Fifo1->rbuf[0]='0';
 3004 001e A3F80490 		strh	r9, [r3, #4]	@ movhi	@ tmp166, p_Fifo1.83_1->rct
 3005 0022 A3F80290 		strh	r9, [r3, #2]	@ movhi	@ tmp166, p_Fifo1.83_1->rwi
 3006 0026 9971     		strb	r1, [r3, #6]	@ tmp169, p_Fifo1.83_1->rbuf
 3007              	@ main.c:1345: 		LED=1;
 3008 0028 C5F80090 		str	r9, [r5]	@ tmp166, MEM[(volatile long unsigned int *)1109524916B]
 3009              	@ main.c:1348: 		GPIOB->CRH = (GPIOB->CRH & 0x0000ff00) | 0x43430033;	//   
 3010 002c 4168     		ldr	r1, [r0, #4]	@ _6, MEM[(struct GPIO_TypeDef *)1073810432B].CRH
 3011 002e 844B     		ldr	r3, .L265+8	@ _9,
 3012              	@ main.c:1349: 		SX1278_hw1.mosi = (u32 *)m_BITBAND_PERIPH(&GPIOB->ODR, 12); 
 3013 0030 844E     		ldr	r6, .L265+12	@ tmp255,
 3014              	@ main.c:1348: 		GPIOB->CRH = (GPIOB->CRH & 0x0000ff00) | 0x43430033;	//   
 3015 0032 01F47F41 		and	r1, r1, #65280	@ tmp174, _6,
 3016              	@ main.c:1349: 		SX1278_hw1.mosi = (u32 *)m_BITBAND_PERIPH(&GPIOB->ODR, 12); 
 3017 0036 DFF870C2 		ldr	ip, .L265+112	@ tmp178,
 3018              	@ main.c:1348: 		GPIOB->CRH = (GPIOB->CRH & 0x0000ff00) | 0x43430033;	//   
 3019 003a 0B43     		orrs	r3, r3, r1	@, _9, _9, tmp174
 3020              	@ main.c:1350: 		SX1278_hw1.miso = (u32 *)m_BITBAND_PERIPH(&GPIOB->IDR, 13); 
 3021 003c DFF86CE2 		ldr	lr, .L265+116	@ tmp180,
ARM GAS  /tmp/ccDfNsWv.s 			page 54


 3022              	@ main.c:1348: 		GPIOB->CRH = (GPIOB->CRH & 0x0000ff00) | 0x43430033;	//   
 3023 0040 4360     		str	r3, [r0, #4]	@ _9, MEM[(struct GPIO_TypeDef *)1073810432B].CRH
 3024              	@ main.c:1362: 		SX1278_1.hw = &SX1278_hw1;			// wybor modulu		
 3025 0042 814C     		ldr	r4, .L265+16	@ tmp256,
 3026              	@ main.c:1349: 		SX1278_hw1.mosi = (u32 *)m_BITBAND_PERIPH(&GPIOB->ODR, 12); 
 3027 0044 C6F800C0 		str	ip, [r6]	@ tmp178, SX1278_hw1.mosi
 3028              	@ main.c:1351: 		SX1278_hw1.sck  = (u32 *)m_BITBAND_PERIPH(&GPIOB->ODR, 14); 
 3029 0048 0CF1080C 		add	ip, ip, #8	@ tmp182, tmp182,
 3030              	@ main.c:1334: void LoRaRX1(void)	{
 3031 004c 89B0     		sub	sp, sp, #36	@,,
 3032              	@ main.c:1351: 		SX1278_hw1.sck  = (u32 *)m_BITBAND_PERIPH(&GPIOB->ODR, 14); 
 3033 004e C6E901EC 		strd	lr, ip, [r6, #4]	@ tmp180, tmp182, tmp255,
 3034              	@ main.c:1352: 		SX1278_hw1.nss  = (u32 *)m_BITBAND_PERIPH(&GPIOB->ODR, 8); 
 3035 0052 0EF16C0E 		add	lr, lr, #108	@ tmp184, tmp184,
 3036              	@ main.c:1353: 		SX1278_hw1.rst  = (u32 *)m_BITBAND_PERIPH(&GPIOB->ODR, 9); 
 3037 0056 ACF1140C 		sub	ip, ip, #20	@ tmp186, tmp186,
 3038 005a C6E903EC 		strd	lr, ip, [r6, #12]	@ tmp184, tmp186, tmp255,
 3039              	@ main.c:1363: 		SX1278_begin(&SX1278_1,sx[0],sx[1],sx[2],sx[3]);
 3040 005e 4B46     		mov	r3, r9	@, tmp166
 3041              	@ main.c:1354: 		SX1278_hw1.dio0 = (u32 *)m_BITBAND_PERIPH(&GPIOB->IDR, 15); 
 3042 0060 ACF1680C 		sub	ip, ip, #104	@ tmp188, tmp188,
 3043              	@ main.c:1363: 		SX1278_begin(&SX1278_1,sx[0],sx[1],sx[2],sx[3]);
 3044 0064 1146     		mov	r1, r2	@,
 3045 0066 CDF800A0 		str	r10, [sp]	@ tmp192,
 3046 006a 2046     		mov	r0, r4	@, tmp256
 3047              	@ main.c:1354: 		SX1278_hw1.dio0 = (u32 *)m_BITBAND_PERIPH(&GPIOB->IDR, 15); 
 3048 006c C6F814C0 		str	ip, [r6, #20]	@ tmp188, SX1278_hw1.dio0
 3049              	@ main.c:1463: 					LED ^= 1;
 3050 0070 0495     		str	r5, [sp, #16]	@ tmp171, %sfp
 3051              	@ main.c:1362: 		SX1278_1.hw = &SX1278_hw1;			// wybor modulu		
 3052 0072 2660     		str	r6, [r4]	@ tmp255, SX1278_1.hw
 3053              	@ main.c:1363: 		SX1278_begin(&SX1278_1,sx[0],sx[1],sx[2],sx[3]);
 3054 0074 FFF7FEFF 		bl	SX1278_begin	@
 3055              	@ main.c:1364: 		SX1278_LoRaEntryRx(&SX1278_1, 64, 2000);
 3056 0078 4FF4FA62 		mov	r2, #2000	@,
 3057 007c 4021     		movs	r1, #64	@,
 3058 007e 2046     		mov	r0, r4	@, tmp256
 3059 0080 FFF7FEFF 		bl	SX1278_LoRaEntryRx	@
 3060              	@ main.c:1371: 		flag_9=0;
 3061 0084 714B     		ldr	r3, .L265+20	@ tmp195,
 3062              	@ inc/tool/delay.h:91: 		Timt = SysTick->VAL;
 3063 0086 724A     		ldr	r2, .L265+24	@ tmp198,
 3064              	@ main.c:1371: 		flag_9=0;
 3065 0088 5B01     		lsls	r3, r3, #5	@ tmp196, tmp195,
 3066 008a 5F62     		str	r7, [r3, #36]	@ tmp197, *_14
 3067              	@ inc/tool/delay.h:91: 		Timt = SysTick->VAL;
 3068 008c 9168     		ldr	r1, [r2, #8]	@ _126, MEM[(struct SysTick_Type *)3758153744B].VAL
 3069 008e 714B     		ldr	r3, .L265+28	@ tmp199,
 3070              	@ main.c:1375: 		UaPutK(" Time=");		uint2uart(tim/TIM_US);			
 3071 0090 7148     		ldr	r0, .L265+32	@,
 3072              	@ inc/tool/delay.h:91: 		Timt = SysTick->VAL;
 3073 0092 1960     		str	r1, [r3]	@ _126, Timt
 3074              	@ inc/tool/delay.h:94: 		*tim = (Timt - SysTick->VAL);
 3075 0094 1D68     		ldr	r5, [r3]	@ Timt.47_123, Timt
 3076 0096 9368     		ldr	r3, [r2, #8]	@ _124, MEM[(struct SysTick_Type *)3758153744B].VAL
 3077 0098 ED1A     		subs	r5, r5, r3	@ _125, Timt.47_123, _124
 3078 009a 0795     		str	r5, [sp, #28]	@ _125, MEM[(volatile u32 *)&tim]
ARM GAS  /tmp/ccDfNsWv.s 			page 55


 3079              	@ main.c:1375: 		UaPutK(" Time=");		uint2uart(tim/TIM_US);			
 3080 009c FFF7FEFF 		bl	UaPutK	@
 3081 00a0 6E48     		ldr	r0, .L265+36	@ tmp205,
 3082              	@ main.c:1359: 		sx[3]=SX1278_LORA_BW_500KHZ;
 3083 00a2 CDF80CA0 		str	r10, [sp, #12]	@ tmp192, %sfp
 3084              	@ main.c:1375: 		UaPutK(" Time=");		uint2uart(tim/TIM_US);			
 3085 00a6 A0FB0530 		umull	r3, r0, r0, r5	@ tmp267, tmp204, tmp205, _125
 3086 00aa 20FA09F0 		lsr	r0, r0, r9	@, tmp204,
 3087 00ae FFF7FEFF 		bl	uint2uart	@
 3088              	@ main.c:1360: 		sx[4]=10;
 3089 00b2 0A23     		movs	r3, #10	@ sx$4,
 3090              	@ main.c:1357: 		sx[1]=SX1278_POWER_11DBM;
 3091 00b4 BA46     		mov	r10, r7	@ sx$1, tmp197
 3092 00b6 6A4D     		ldr	r5, .L265+40	@ tmp253,
 3093              	@ main.c:1468: 			if(STCLK_MS*1000 < (trg0 - SysTick->VAL)){	
 3094 00b8 6A4F     		ldr	r7, .L265+44	@ tmp250,
 3095              	@ main.c:1360: 		sx[4]=10;
 3096 00ba 0593     		str	r3, [sp, #20]	@ sx$4, %sfp
 3097              	.L240:
 3098              	@ main.c:1383: 			if(p_Fifo1->rct){
 3099 00bc D8F80030 		ldr	r3, [r8]	@ p_Fifo1.89_16, p_Fifo1
 3100 00c0 9B88     		ldrh	r3, [r3, #4]	@, p_Fifo1.89_16->rct
 3101 00c2 9BB2     		uxth	r3, r3	@ _17, p_Fifo1.89_16->rct
 3102 00c4 8BB9     		cbnz	r3, .L263	@ _17,
 3103              	.L241:
 3104              	@ main.c:1439: 			if( *SX1278_hw1.dio0 ){
 3105 00c6 7369     		ldr	r3, [r6, #20]	@ _34, SX1278_hw1.dio0
 3106 00c8 1B68     		ldr	r3, [r3]	@ _35, *_34
 3107 00ca 002B     		cmp	r3, #0	@ _35
 3108 00cc 43D1     		bne	.L264	@
 3109              	.L252:
 3110              	@ main.c:1468: 			if(STCLK_MS*1000 < (trg0 - SysTick->VAL)){	
 3111 00ce 604A     		ldr	r2, .L265+24	@ tmp248,
 3112 00d0 2B68     		ldr	r3, [r5]	@ trg0.92_45, trg0
 3113 00d2 9168     		ldr	r1, [r2, #8]	@ _47, MEM[(struct SysTick_Type *)3758153744B].VAL
 3114 00d4 5B1A     		subs	r3, r3, r1	@ tmp249, trg0.92_45, _47
 3115 00d6 BB42     		cmp	r3, r7	@ tmp249, tmp250
 3116 00d8 F0D9     		bls	.L240	@,
 3117              	@ main.c:1469: 				trg0  = SysTick->VAL;	
 3118 00da 9368     		ldr	r3, [r2, #8]	@ _50, MEM[(struct SysTick_Type *)3758153744B].VAL
 3119 00dc 2B60     		str	r3, [r5]	@ _50, trg0
 3120              	@ main.c:1383: 			if(p_Fifo1->rct){
 3121 00de D8F80030 		ldr	r3, [r8]	@ p_Fifo1.89_16, p_Fifo1
 3122 00e2 9B88     		ldrh	r3, [r3, #4]	@, p_Fifo1.89_16->rct
 3123 00e4 9BB2     		uxth	r3, r3	@ _17, p_Fifo1.89_16->rct
 3124 00e6 002B     		cmp	r3, #0	@ _17
 3125 00e8 EDD0     		beq	.L241	@
 3126              	.L263:
 3127              	@ main.c:1384: 				UART_getChar( (char*)&swh);
 3128 00ea 0DF11B00 		add	r0, sp, #27	@ tmp271,,
 3129 00ee FFF7FEFF 		bl	UART_getChar	@
 3130              	@ main.c:1386: 				switch (swh)	{
 3131 00f2 9DF81B30 		ldrb	r3, [sp, #27]	@ zero_extendqisi2	@ swh, swh
 3132 00f6 623B     		subs	r3, r3, #98	@ tmp211, swh,
 3133 00f8 112B     		cmp	r3, #17	@ tmp211,
 3134 00fa 17D8     		bhi	.L242	@
 3135 00fc DFE803F0 		tbb	[pc, r3]	@ tmp211
ARM GAS  /tmp/ccDfNsWv.s 			page 56


 3136              	.L244:
 3137 0100 53       		.byte	(.L243-.L244)/2
 3138 0101 16       		.byte	(.L242-.L244)/2
 3139 0102 45       		.byte	(.L245-.L244)/2
 3140 0103 16       		.byte	(.L242-.L244)/2
 3141 0104 16       		.byte	(.L242-.L244)/2
 3142 0105 16       		.byte	(.L242-.L244)/2
 3143 0106 16       		.byte	(.L242-.L244)/2
 3144 0107 16       		.byte	(.L242-.L244)/2
 3145 0108 16       		.byte	(.L242-.L244)/2
 3146 0109 16       		.byte	(.L242-.L244)/2
 3147 010a 16       		.byte	(.L242-.L244)/2
 3148 010b 16       		.byte	(.L242-.L244)/2
 3149 010c 16       		.byte	(.L242-.L244)/2
 3150 010d 16       		.byte	(.L242-.L244)/2
 3151 010e 74       		.byte	(.L246-.L244)/2
 3152 010f 61       		.byte	(.L247-.L244)/2
 3153 0110 82       		.byte	(.L248-.L244)/2
 3154 0111 09       		.byte	(.L249-.L244)/2
 3155              		.p2align 1
 3156              	.L249:
 3157              	@ main.c:1410: 					UaPutK("\r\n 0-6("); uint2uart(sx[2]);UaPutK(") SF=");					
 3158 0112 5548     		ldr	r0, .L265+48	@,
 3159 0114 FFF7FEFF 		bl	UaPutK	@
 3160 0118 4846     		mov	r0, r9	@, sx$2
 3161 011a FFF7FEFF 		bl	uint2uart	@
 3162 011e 5348     		ldr	r0, .L265+52	@,
 3163 0120 FFF7FEFF 		bl	UaPutK	@
 3164              	@ main.c:1411: 					sx[2] = UART_getNum();					
 3165 0124 FFF7FEFF 		bl	UART_getNum	@
 3166 0128 5FFA80F9 		uxtb	r9, r0	@ sx$2,
 3167              	.L242:
 3168              	@ main.c:1426: 				SX1278_begin(&SX1278_1,sx[0],sx[1],sx[2],sx[3]);
 3169 012c 039B     		ldr	r3, [sp, #12]	@ sx$3, %sfp
 3170 012e 5246     		mov	r2, r10	@, sx$1
 3171 0130 0093     		str	r3, [sp]	@ sx$3,
 3172 0132 0021     		movs	r1, #0	@,
 3173 0134 4B46     		mov	r3, r9	@, sx$2
 3174 0136 2046     		mov	r0, r4	@, tmp260
 3175 0138 FFF7FEFF 		bl	SX1278_begin	@
 3176              	@ main.c:1427: 				SX1278_LoRaEntryRx(&SX1278_1, 64, 2000);
 3177 013c 4FF4FA62 		mov	r2, #2000	@,
 3178 0140 4021     		movs	r1, #64	@,
 3179 0142 2046     		mov	r0, r4	@, tmp260
 3180 0144 FFF7FEFF 		bl	SX1278_LoRaEntryRx	@
 3181              	@ main.c:1429: 				UaPutK("\r\n Menu > ");
 3182 0148 4948     		ldr	r0, .L265+56	@,
 3183 014a FFF7FEFF 		bl	UaPutK	@
 3184              	@ main.c:1439: 			if( *SX1278_hw1.dio0 ){
 3185 014e 7369     		ldr	r3, [r6, #20]	@ _34, SX1278_hw1.dio0
 3186 0150 1B68     		ldr	r3, [r3]	@ _35, *_34
 3187 0152 002B     		cmp	r3, #0	@ _35
 3188 0154 BBD0     		beq	.L252	@
 3189              	.L264:
 3190              	@ main.c:1440: 				 message_length = SX1278_LoRaRxPacket(&SX1278_1);
 3191 0156 2046     		mov	r0, r4	@, tmp260
 3192 0158 FFF7FEFF 		bl	SX1278_LoRaRxPacket	@
ARM GAS  /tmp/ccDfNsWv.s 			page 57


 3193              	@ main.c:1441: 				if(message_length){
 3194 015c 0028     		cmp	r0, #0	@
 3195 015e B6D0     		beq	.L252	@
 3196              	@ main.c:1443: 					SX1278_read(&SX1278_1, (uint8_t *) buf_rx);
 3197 0160 4449     		ldr	r1, .L265+60	@,
 3198 0162 2046     		mov	r0, r4	@, tmp260
 3199 0164 FFF7FEFF 		bl	SX1278_read	@
 3200              	@ main.c:1444: 					UaPutK("\r\n prssi->");	
 3201 0168 4348     		ldr	r0, .L265+64	@,
 3202 016a FFF7FEFF 		bl	UaPutK	@
 3203              	@ main.c:1445: 					prssi = SX1278_SPIRead(&SX1278_1, LR_RegPktRssiValue)-164;
 3204 016e 1A21     		movs	r1, #26	@,
 3205 0170 2046     		mov	r0, r4	@, tmp260
 3206 0172 FFF7FEFF 		bl	SX1278_SPIRead	@
 3207 0176 A438     		subs	r0, r0, #164	@ tmp243,,
 3208              	@ main.c:1446: 					sint2uart(prssi);
 3209 0178 00B2     		sxth	r0, r0	@, tmp243
 3210 017a FFF7FEFF 		bl	sint2uart	@
 3211              	@ main.c:1463: 					LED ^= 1;
 3212 017e 049A     		ldr	r2, [sp, #16]	@ tmp261, %sfp
 3213 0180 1368     		ldr	r3, [r2]	@ _42, MEM[(volatile long unsigned int *)1109524916B]
 3214 0182 83F00103 		eor	r3, r3, #1	@ _44, _42,
 3215 0186 1360     		str	r3, [r2]	@ _44, MEM[(volatile long unsigned int *)1109524916B]
 3216 0188 A1E7     		b	.L252	@
 3217              	.L245:
 3218              	@ main.c:1418: 					UaPutK("\r\n sek("); uint2uart(sx[4]);UaPutK(") Delay=");					
 3219 018a 3C48     		ldr	r0, .L265+68	@,
 3220 018c FFF7FEFF 		bl	UaPutK	@
 3221 0190 0598     		ldr	r0, [sp, #20]	@, %sfp
 3222 0192 FFF7FEFF 		bl	uint2uart	@
 3223 0196 3A48     		ldr	r0, .L265+72	@,
 3224 0198 FFF7FEFF 		bl	UaPutK	@
 3225              	@ main.c:1419: 					sx[4] = UART_getNum();					
 3226 019c FFF7FEFF 		bl	UART_getNum	@
 3227 01a0 C3B2     		uxtb	r3, r0	@ sx$4,
 3228 01a2 0593     		str	r3, [sp, #20]	@ sx$4, %sfp
 3229              	@ main.c:1420: 					break;
 3230 01a4 C2E7     		b	.L242	@
 3231              	.L243:
 3232              	@ main.c:1414: 					UaPutK("\r\n 0-9("); uint2uart(sx[3]);UaPutK(") BW=");					
 3233 01a6 3748     		ldr	r0, .L265+76	@,
 3234 01a8 FFF7FEFF 		bl	UaPutK	@
 3235 01ac 0398     		ldr	r0, [sp, #12]	@, %sfp
 3236 01ae FFF7FEFF 		bl	uint2uart	@
 3237 01b2 3548     		ldr	r0, .L265+80	@,
 3238 01b4 FFF7FEFF 		bl	UaPutK	@
 3239              	@ main.c:1415: 					sx[3] = UART_getNum();					
 3240 01b8 FFF7FEFF 		bl	UART_getNum	@
 3241 01bc C3B2     		uxtb	r3, r0	@ sx$3,
 3242 01be 0393     		str	r3, [sp, #12]	@ sx$3, %sfp
 3243              	@ main.c:1416: 					break;
 3244 01c0 B4E7     		b	.L242	@
 3245              	.L247:
 3246              	@ main.c:1391: 					UaPutK("\r\n");
 3247 01c2 3248     		ldr	r0, .L265+84	@,
 3248 01c4 FFF7FEFF 		bl	UaPutK	@
 3249 01c8 4FF0000B 		mov	fp, #0	@ ivtmp.447,
ARM GAS  /tmp/ccDfNsWv.s 			page 58


 3250              	.L250:
 3251              	@ main.c:1393: 						dat = SX1278_SPIRead(&SX1278_1, n);
 3252 01cc 5FFA8BF1 		uxtb	r1, fp	@, ivtmp.447
 3253 01d0 2046     		mov	r0, r4	@, tmp260
 3254 01d2 FFF7FEFF 		bl	SX1278_SPIRead	@
 3255 01d6 0BF1010B 		add	fp, fp, #1	@ ivtmp.447, ivtmp.447,
 3256              	@ main.c:1394: 						hex2uart(dat,2);
 3257 01da 0221     		movs	r1, #2	@,
 3258 01dc FFF7FEFF 		bl	hex2uart	@
 3259              	@ main.c:1392: 					for (u08 n=0;n<0x14;n++){
 3260 01e0 BBF1140F 		cmp	fp, #20	@ ivtmp.447,
 3261 01e4 F2D1     		bne	.L250	@,
 3262 01e6 A1E7     		b	.L242	@
 3263              	.L246:
 3264              	@ main.c:1406: 					UaPutK("\r\n 0-3("); uint2uart(sx[1]);UaPutK(") POWER=");					
 3265 01e8 2948     		ldr	r0, .L265+88	@,
 3266 01ea FFF7FEFF 		bl	UaPutK	@
 3267 01ee 5046     		mov	r0, r10	@, sx$1
 3268 01f0 FFF7FEFF 		bl	uint2uart	@
 3269 01f4 2748     		ldr	r0, .L265+92	@,
 3270 01f6 FFF7FEFF 		bl	UaPutK	@
 3271              	@ main.c:1407: 					sx[1] = UART_getNum();					
 3272 01fa FFF7FEFF 		bl	UART_getNum	@
 3273 01fe 5FFA80FA 		uxtb	r10, r0	@ sx$1,
 3274              	@ main.c:1408: 					break;
 3275 0202 93E7     		b	.L242	@
 3276              	.L248:
 3277              	@ main.c:1399: 					UaPutK("\r\n Read Reg1=0x");	reg=UART_getHex();
 3278 0204 2448     		ldr	r0, .L265+96	@,
 3279 0206 FFF7FEFF 		bl	UaPutK	@
 3280 020a FFF7FEFF 		bl	UART_getHex	@
 3281 020e 8346     		mov	fp, r0	@ _20,
 3282              	@ main.c:1400: 					UaPutK(" Reg1 0x");						hex2uart(reg,2);
 3283 0210 2248     		ldr	r0, .L265+100	@,
 3284 0212 5FFA8BFB 		uxtb	fp, fp	@ _20, _20
 3285 0216 FFF7FEFF 		bl	UaPutK	@
 3286 021a 5846     		mov	r0, fp	@, _20
 3287 021c 0221     		movs	r1, #2	@,
 3288 021e FFF7FEFF 		bl	hex2uart	@
 3289              	@ main.c:1401: 					UaPutK("= 0x");						
 3290 0222 1F48     		ldr	r0, .L265+104	@,
 3291 0224 FFF7FEFF 		bl	UaPutK	@
 3292              	@ main.c:1402: 					dat = SX1278_SPIRead(&SX1278_1, reg);
 3293 0228 5946     		mov	r1, fp	@, _20
 3294 022a 2046     		mov	r0, r4	@, tmp260
 3295 022c FFF7FEFF 		bl	SX1278_SPIRead	@
 3296              	@ main.c:1403: 					hex2uart(dat,2);
 3297 0230 0221     		movs	r1, #2	@,
 3298 0232 FFF7FEFF 		bl	hex2uart	@
 3299              	@ main.c:1404: 					break;
 3300 0236 79E7     		b	.L242	@
 3301              	.L266:
 3302              		.align	2
 3303              	.L265:
 3304 0238 B4012242 		.word	1109524916
 3305 023c 000C0140 		.word	1073810432
 3306 0240 33004343 		.word	1128464435
ARM GAS  /tmp/ccDfNsWv.s 			page 59


 3307 0244 00000000 		.word	.LANCHOR11
 3308 0248 00000000 		.word	.LANCHOR12
 3309 024c 00001001 		.word	.LANCHOR8+17825792
 3310 0250 10E000E0 		.word	-536813552
 3311 0254 00000000 		.word	Timt
 3312 0258 00000000 		.word	.LC36
 3313 025c 398EE338 		.word	954437177
 3314 0260 00000000 		.word	trg0
 3315 0264 40548900 		.word	9000000
 3316 0268 40000000 		.word	.LC42
 3317 026c 48000000 		.word	.LC43
 3318 0270 74000000 		.word	.LC48
 3319 0274 00000000 		.word	.LANCHOR13
 3320 0278 80000000 		.word	.LC49
 3321 027c 60000000 		.word	.LC46
 3322 0280 68000000 		.word	.LC47
 3323 0284 50000000 		.word	.LC44
 3324 0288 58000000 		.word	.LC45
 3325 028c 40000000 		.word	.LC18
 3326 0290 2C000000 		.word	.LC40
 3327 0294 34000000 		.word	.LC41
 3328 0298 08000000 		.word	.LC37
 3329 029c 18000000 		.word	.LC38
 3330 02a0 24000000 		.word	.LC39
 3331 02a4 00000000 		.word	p_Fifo1
 3332 02a8 B0812142 		.word	1109492144
 3333 02ac 34812142 		.word	1109492020
 3334              		.size	LoRaRX1, .-LoRaRX1
 3335              		.section	.text.LoRaTX,"ax",%progbits
 3336              		.align	1
 3337              		.p2align 2,,3
 3338              		.global	LoRaTX
 3339              		.syntax unified
 3340              		.thumb
 3341              		.thumb_func
 3342              		.fpu softvfp
 3343              		.type	LoRaTX, %function
 3344              	LoRaTX:
 3345              		@ args = 0, pretend = 0, frame = 8
 3346              		@ frame_needed = 0, uses_anonymous_args = 0
 3347 0000 2DE9F04F 		push	{r4, r5, r6, r7, r8, r9, r10, fp, lr}	@
 3348              	@ main.c:5438: 		TIM3->CR1 = 0;
 3349 0004 0024     		movs	r4, #0	@ tmp160,
 3350              	@ main.c:5439: 		TIM3->PSC = (F_CPU/(1000000)) - 1;
 3351 0006 4FF04708 		mov	r8, #71	@ tmp163,
 3352              	@ main.c:5433: 		RCC->APB1ENR |= RCC_APB1ENR_TIM3EN;
 3353 000a 634F     		ldr	r7, .L272	@ tmp156,
 3354              	@ main.c:1477: void LoRaTX(void)		{
 3355 000c 85B0     		sub	sp, sp, #20	@,,
 3356              	@ main.c:1496: 		RtcInit();
 3357 000e FFF7FEFF 		bl	RtcInit	@
 3358              	@ main.c:5433: 		RCC->APB1ENR |= RCC_APB1ENR_TIM3EN;
 3359 0012 FA69     		ldr	r2, [r7, #28]	@ _71, MEM[(struct RCC_TypeDef *)1073876992B].APB1ENR
 3360              	@ main.c:5438: 		TIM3->CR1 = 0;
 3361 0014 614B     		ldr	r3, .L272+4	@ tmp158,
 3362              	@ main.c:5433: 		RCC->APB1ENR |= RCC_APB1ENR_TIM3EN;
 3363 0016 42F00202 		orr	r2, r2, #2	@ _72, _71,
ARM GAS  /tmp/ccDfNsWv.s 			page 60


 3364 001a FA61     		str	r2, [r7, #28]	@ _72, MEM[(struct RCC_TypeDef *)1073876992B].APB1ENR
 3365              	@ main.c:5440: 		TIM3->ARR = TIM3_ARR - 1;
 3366 001c 4FF6FE7E 		movw	lr, #65534	@ tmp166,
 3367              	@ main.c:5438: 		TIM3->CR1 = 0;
 3368 0020 1C80     		strh	r4, [r3]	@ movhi	@ tmp160, MEM[(struct TIM_TypeDef *)1073742848B].CR1
 3369              	@ main.c:5439: 		TIM3->PSC = (F_CPU/(1000000)) - 1;
 3370 0022 A3F82880 		strh	r8, [r3, #40]	@ movhi	@ tmp163, MEM[(struct TIM_TypeDef *)1073742848B].PSC
 3371              	@ main.c:5442: 		TIM3->DIER = TIM_DIER_UIE;
 3372 0026 4FF00108 		mov	r8, #1	@ movhi	@ tmp269,
 3373              	@ ./inc/core_cm3.h:1504:   NVIC->ISER[((uint32_t)(IRQn) >> 5)] = (1 << ((uint32_t)(IRQn) & 0x1F)); 
 3374 002a 4FF0005C 		mov	ip, #536870912	@ tmp181,
 3375              	@ main.c:1498: 		p_Fifo1->rct=1;	p_Fifo1->rwi=1;	p_Fifo1->rbuf[0]='0';
 3376 002e 3025     		movs	r5, #48	@ tmp187,
 3377              	@ main.c:1517: 		SX1278_begin(&SX1278_1,sx[0],sx[1],sx[2],sx[3]);
 3378 0030 0920     		movs	r0, #9	@ tmp212,
 3379              	@ main.c:5440: 		TIM3->ARR = TIM3_ARR - 1;
 3380 0032 A3F82CE0 		strh	lr, [r3, #44]	@ movhi	@ tmp166, MEM[(struct TIM_TypeDef *)1073742848B].ARR
 3381              	@ main.c:5442: 		TIM3->DIER = TIM_DIER_UIE;
 3382 0036 A3F80C80 		strh	r8, [r3, #12]	@ movhi	@ tmp269, MEM[(struct TIM_TypeDef *)1073742848B].DIER
 3383              	@ main.c:5443: 		TIM3->CR1  |= TIM_CR1_DIR;
 3384 003a 1A88     		ldrh	r2, [r3]	@, MEM[(struct TIM_TypeDef *)1073742848B].CR1
 3385              	@ main.c:1498: 		p_Fifo1->rct=1;	p_Fifo1->rwi=1;	p_Fifo1->rbuf[0]='0';
 3386 003c DFF88CE1 		ldr	lr, .L272+52	@ tmp182,
 3387              	@ main.c:5443: 		TIM3->CR1  |= TIM_CR1_DIR;
 3388 0040 42F01002 		orr	r2, r2, #16	@ _74, MEM[(struct TIM_TypeDef *)1073742848B].CR1,
 3389 0044 1A80     		strh	r2, [r3]	@ movhi	@ _74, MEM[(struct TIM_TypeDef *)1073742848B].CR1
 3390              	@ main.c:5444: 		TIM3->CR1  |= TIM_CR1_CEN;
 3391 0046 1A88     		ldrh	r2, [r3]	@, MEM[(struct TIM_TypeDef *)1073742848B].CR1
 3392              	@ ./inc/core_cm3.h:1504:   NVIC->ISER[((uint32_t)(IRQn) >> 5)] = (1 << ((uint32_t)(IRQn) & 0x1F)); 
 3393 0048 5549     		ldr	r1, .L272+8	@ tmp180,
 3394              	@ main.c:5444: 		TIM3->CR1  |= TIM_CR1_CEN;
 3395 004a 42F00102 		orr	r2, r2, #1	@ _76, MEM[(struct TIM_TypeDef *)1073742848B].CR1,
 3396 004e 1A80     		strh	r2, [r3]	@ movhi	@ _76, MEM[(struct TIM_TypeDef *)1073742848B].CR1
 3397              	@ main.c:1498: 		p_Fifo1->rct=1;	p_Fifo1->rwi=1;	p_Fifo1->rbuf[0]='0';
 3398 0050 DEF80030 		ldr	r3, [lr]	@ p_Fifo1.94_2, p_Fifo1
 3399              	@ ./inc/core_cm3.h:1504:   NVIC->ISER[((uint32_t)(IRQn) >> 5)] = (1 << ((uint32_t)(IRQn) & 0x1F)); 
 3400 0054 C1F800C0 		str	ip, [r1]	@ tmp181, MEM[(struct NVIC_Type *)3758153984B].ISER
 3401              	@ main.c:1501: 		GPIOA->CRL = (GPIOA->CRL & 0xfff00000) | 0x00044343;	//   PA2=MOSI, PA1=MISO, PA0=
 3402 0058 A7F58437 		sub	r7, r7, #67584	@ tmp189, tmp189,
 3403              	@ main.c:1498: 		p_Fifo1->rct=1;	p_Fifo1->rwi=1;	p_Fifo1->rbuf[0]='0';
 3404 005c A3F80480 		strh	r8, [r3, #4]	@ movhi	@ tmp270, p_Fifo1.94_2->rct
 3405 0060 A3F80280 		strh	r8, [r3, #2]	@ movhi	@ tmp271, p_Fifo1.94_2->rwi
 3406 0064 9D71     		strb	r5, [r3, #6]	@ tmp187, p_Fifo1.94_2->rbuf
 3407              	@ main.c:1501: 		GPIOA->CRL = (GPIOA->CRL & 0xfff00000) | 0x00044343;	//   PA2=MOSI, PA1=MISO, PA0=
 3408 0066 3B68     		ldr	r3, [r7]	@ _4, MEM[(struct GPIO_TypeDef *)1073809408B].CRL
 3409 0068 4E49     		ldr	r1, .L272+12	@ _6,
 3410 006a 1B0D     		lsrs	r3, r3, #20	@ tmp190, _4,
 3411 006c 1B05     		lsls	r3, r3, #20	@ tmp190, tmp190,
 3412              	@ main.c:1502: 		GPIOB->CRH = (GPIOB->CRH & 0xffffff00) | 0x00000033;	//   
 3413 006e 4E4A     		ldr	r2, .L272+16	@ tmp194,
 3414              	@ main.c:1501: 		GPIOA->CRL = (GPIOA->CRL & 0xfff00000) | 0x00044343;	//   PA2=MOSI, PA1=MISO, PA0=
 3415 0070 1943     		orrs	r1, r1, r3	@, _6, _6, tmp190
 3416 0072 3960     		str	r1, [r7]	@ _6, MEM[(struct GPIO_TypeDef *)1073809408B].CRL
 3417              	@ main.c:1502: 		GPIOB->CRH = (GPIOB->CRH & 0xffffff00) | 0x00000033;	//   
 3418 0074 5368     		ldr	r3, [r2, #4]	@ _7, MEM[(struct GPIO_TypeDef *)1073810432B].CRH
 3419              	@ main.c:1503: 		SX1278_hw1.mosi = (u32 *)m_BITBAND_PERIPH(&GPIOA->ODR, 2); 
 3420 0076 4D4D     		ldr	r5, .L272+20	@ tmp197,
ARM GAS  /tmp/ccDfNsWv.s 			page 61


 3421 0078 DFF854E1 		ldr	lr, .L272+56	@ tmp198,
 3422              	@ main.c:1504: 		SX1278_hw1.miso = (u32 *)m_BITBAND_PERIPH(&GPIOA->IDR, 1); 
 3423 007c DFF854C1 		ldr	ip, .L272+60	@ tmp200,
 3424              	@ main.c:1502: 		GPIOB->CRH = (GPIOB->CRH & 0xffffff00) | 0x00000033;	//   
 3425 0080 23F0FF03 		bic	r3, r3, #255	@ tmp195, _7,
 3426 0084 43F03303 		orr	r3, r3, #51	@ _9, tmp195,
 3427 0088 5360     		str	r3, [r2, #4]	@ _9, MEM[(struct GPIO_TypeDef *)1073810432B].CRH
 3428              	@ main.c:1517: 		SX1278_begin(&SX1278_1,sx[0],sx[1],sx[2],sx[3]);
 3429 008a 0090     		str	r0, [sp]	@ tmp212,
 3430              	@ main.c:1503: 		SX1278_hw1.mosi = (u32 *)m_BITBAND_PERIPH(&GPIOA->ODR, 2); 
 3431 008c C5F800E0 		str	lr, [r5]	@ tmp198, SX1278_hw1.mosi
 3432              	@ main.c:1504: 		SX1278_hw1.miso = (u32 *)m_BITBAND_PERIPH(&GPIOA->IDR, 1); 
 3433 0090 C5F804C0 		str	ip, [r5, #4]	@ tmp200, SX1278_hw1.miso
 3434              	@ main.c:1505: 		SX1278_hw1.sck  = (u32 *)m_BITBAND_PERIPH(&GPIOA->ODR, 0); 
 3435 0094 AEF1080E 		sub	lr, lr, #8	@ tmp202, tmp202,
 3436              	@ main.c:1506: 		SX1278_hw1.nss  = (u32 *)m_BITBAND_PERIPH(&GPIOB->ODR, 8); 
 3437 0098 0CF5004C 		add	ip, ip, #32768	@ tmp204, tmp204,
 3438              	@ main.c:1505: 		SX1278_hw1.sck  = (u32 *)m_BITBAND_PERIPH(&GPIOA->ODR, 0); 
 3439 009c C5F808E0 		str	lr, [r5, #8]	@ tmp202, SX1278_hw1.sck
 3440              	@ main.c:1516: 		SX1278_1.hw = &SX1278_hw1;			// wybor modulu		
 3441 00a0 DFF83481 		ldr	r8, .L272+64	@ tmp209,
 3442              	@ main.c:1506: 		SX1278_hw1.nss  = (u32 *)m_BITBAND_PERIPH(&GPIOB->ODR, 8); 
 3443 00a4 0CF19C0C 		add	ip, ip, #156	@ tmp204, tmp204,
 3444              	@ main.c:1507: 		SX1278_hw1.rst  = (u32 *)m_BITBAND_PERIPH(&GPIOB->ODR, 9); 
 3445 00a8 0EF5004E 		add	lr, lr, #32768	@ tmp206, tmp206,
 3446              	@ main.c:1506: 		SX1278_hw1.nss  = (u32 *)m_BITBAND_PERIPH(&GPIOB->ODR, 8); 
 3447 00ac C5F80CC0 		str	ip, [r5, #12]	@ tmp204, SX1278_hw1.nss
 3448              	@ main.c:1507: 		SX1278_hw1.rst  = (u32 *)m_BITBAND_PERIPH(&GPIOB->ODR, 9); 
 3449 00b0 0EF1240E 		add	lr, lr, #36	@ tmp206, tmp206,
 3450              	@ main.c:1508: 		SX1278_hw1.dio0 = (u32 *)m_BITBAND_PERIPH(&GPIOB->IDR, 1); 
 3451 00b4 ACF19C0C 		sub	ip, ip, #156	@ tmp208, tmp208,
 3452              	@ main.c:1517: 		SX1278_begin(&SX1278_1,sx[0],sx[1],sx[2],sx[3]);
 3453 00b8 2246     		mov	r2, r4	@, tmp160
 3454 00ba 2146     		mov	r1, r4	@, tmp160
 3455 00bc 0123     		movs	r3, #1	@,
 3456 00be 4046     		mov	r0, r8	@, tmp209
 3457              	@ main.c:1516: 		SX1278_1.hw = &SX1278_hw1;			// wybor modulu		
 3458 00c0 C8F80050 		str	r5, [r8]	@ tmp197, SX1278_1.hw
 3459              	@ main.c:1508: 		SX1278_hw1.dio0 = (u32 *)m_BITBAND_PERIPH(&GPIOB->IDR, 1); 
 3460 00c4 C5E904EC 		strd	lr, ip, [r5, #16]	@ tmp206, tmp208, tmp197,
 3461              	@ main.c:1517: 		SX1278_begin(&SX1278_1,sx[0],sx[1],sx[2],sx[3]);
 3462 00c8 FFF7FEFF 		bl	SX1278_begin	@
 3463              	@ main.c:1521: 		GPIOA->CRH = (GPIOA->CRH & 0x0fffffff) | 0x60000000;
 3464 00cc 7B68     		ldr	r3, [r7, #4]	@ _10, MEM[(struct GPIO_TypeDef *)1073809408B].CRH
 3465              	@ main.c:1531: 		GPIOA->ODR = 0b0001010000000000;
 3466 00ce 4FF4A051 		mov	r1, #5120	@ tmp228,
 3467              	@ main.c:1521: 		GPIOA->CRH = (GPIOA->CRH & 0x0fffffff) | 0x60000000;
 3468 00d2 23F07043 		bic	r3, r3, #-268435456	@ tmp214, _10,
 3469 00d6 43F0C043 		orr	r3, r3, #1610612736	@ _12, tmp214,
 3470 00da 7B60     		str	r3, [r7, #4]	@ _12, MEM[(struct GPIO_TypeDef *)1073809408B].CRH
 3471              	@ main.c:1527: 		LED	   = 1;		
 3472 00dc 0123     		movs	r3, #1	@ tmp272,
 3473              	@ main.c:1526: 		flag_9 = 0;		
 3474 00de 344A     		ldr	r2, .L272+24	@ tmp217,
 3475              	@ main.c:1527: 		LED	   = 1;		
 3476 00e0 3448     		ldr	r0, .L272+28	@ tmp220,
 3477              	@ main.c:1526: 		flag_9 = 0;		
ARM GAS  /tmp/ccDfNsWv.s 			page 62


 3478 00e2 5201     		lsls	r2, r2, #5	@ tmp218, tmp217,
 3479 00e4 5462     		str	r4, [r2, #36]	@ tmp160, *_17
 3480              	@ main.c:1527: 		LED	   = 1;		
 3481 00e6 0360     		str	r3, [r0]	@ tmp272, MEM[(volatile long unsigned int *)1109524916B]
 3482              	@ main.c:1529: 		GPIOA->CRH = (GPIOA->CRH & 0xfff0f0ff)|0x00020200 ; //low power
 3483 00e8 7B68     		ldr	r3, [r7, #4]	@ _18, MEM[(struct GPIO_TypeDef *)1073809408B].CRH
 3484 00ea DFF8F090 		ldr	r9, .L272+68	@ tmp263,
 3485 00ee 23F47023 		bic	r3, r3, #983040	@ tmp223, _18,
 3486 00f2 23F47063 		bic	r3, r3, #3840	@ tmp223, tmp223,
 3487 00f6 43F40033 		orr	r3, r3, #131072	@ _20, tmp223,
 3488 00fa 43F40073 		orr	r3, r3, #512	@ _20, _20,
 3489 00fe 7B60     		str	r3, [r7, #4]	@ _20, MEM[(struct GPIO_TypeDef *)1073809408B].CRH
 3490              	@ main.c:1531: 		GPIOA->ODR = 0b0001010000000000;
 3491 0100 F960     		str	r1, [r7, #12]	@ tmp228, MEM[(struct GPIO_TypeDef *)1073809408B].ODR
 3492              	@ main.c:1532: 		GPIOA->ODR |= (1<<10)|(1<<12); 
 3493 0102 FB68     		ldr	r3, [r7, #12]	@ _21, MEM[(struct GPIO_TypeDef *)1073809408B].ODR
 3494              	@ main.c:1567: 				LED ^= 1;
 3495 0104 8346     		mov	fp, r0	@ tmp238, tmp220
 3496              	@ main.c:1532: 		GPIOA->ODR |= (1<<10)|(1<<12); 
 3497 0106 0B43     		orrs	r3, r3, r1	@, _22, _21,
 3498 0108 FB60     		str	r3, [r7, #12]	@ _22, MEM[(struct GPIO_TypeDef *)1073809408B].ODR
 3499              	@ main.c:1562: 		flag_9=1;	
 3500 010a 0123     		movs	r3, #1	@ tmp274,
 3501 010c CA46     		mov	r10, r9	@ tmp265, tmp263
 3502              	@ main.c:1526: 		flag_9 = 0;		
 3503 010e 3046     		mov	r0, r6	@ n, n
 3504              	@ main.c:1562: 		flag_9=1;	
 3505 0110 5362     		str	r3, [r2, #36]	@ tmp274, *_17
 3506 0112 294D     		ldr	r5, .L272+32	@ tmp261,
 3507              	@ main.c:1526: 		flag_9 = 0;		
 3508 0114 02F12403 		add	r3, r2, #36	@ _17, tmp218,
 3509              	@ main.c:1565: 			if(STCLK_MS*1000 < (trg0 - SysTick->VAL)){
 3510 0118 284C     		ldr	r4, .L272+36	@ tmp233,
 3511 011a 294F     		ldr	r7, .L272+40	@ tmp235,
 3512              	@ main.c:1526: 		flag_9 = 0;		
 3513 011c 0393     		str	r3, [sp, #12]	@ _17, %sfp
 3514              	.L268:
 3515              	@ main.c:1565: 			if(STCLK_MS*1000 < (trg0 - SysTick->VAL)){
 3516 011e 2B68     		ldr	r3, [r5]	@ trg0.99_23, trg0
 3517 0120 A268     		ldr	r2, [r4, #8]	@ _24, MEM[(struct SysTick_Type *)3758153744B].VAL
 3518 0122 9B1A     		subs	r3, r3, r2	@ tmp234, trg0.99_23, _24
 3519 0124 BB42     		cmp	r3, r7	@ tmp234, tmp235
 3520 0126 FAD9     		bls	.L268	@,
 3521              	@ main.c:1569: 				strcpy (buf_tx," ");		
 3522 0128 4FF0200E 		mov	lr, #32	@ tmp242,
 3523              	@ main.c:1566: 				trg0 = SysTick->VAL; 
 3524 012c A368     		ldr	r3, [r4, #8]	@ _26, MEM[(struct SysTick_Type *)3758153744B].VAL
 3525              	@ main.c:1571: 				strcat (buf_tx,unt2str(n++,str_num,5));
 3526 012e 00F1010C 		add	ip, r0, #1	@ tmp243, n,
 3527              	@ main.c:1566: 				trg0 = SysTick->VAL; 
 3528 0132 2B60     		str	r3, [r5]	@ _26, trg0
 3529              	@ main.c:1567: 				LED ^= 1;
 3530 0134 DBF80020 		ldr	r2, [fp]	@ _27, MEM[(volatile long unsigned int *)1109524916B]
 3531              	@ main.c:1571: 				strcat (buf_tx,unt2str(n++,str_num,5));
 3532 0138 1FFA8CF3 		uxth	r3, ip	@ n, tmp243
 3533              	@ main.c:1567: 				LED ^= 1;
 3534 013c 82F00102 		eor	r2, r2, #1	@ _28, _27,
ARM GAS  /tmp/ccDfNsWv.s 			page 63


 3535 0140 CBF80020 		str	r2, [fp]	@ _28, MEM[(volatile long unsigned int *)1109524916B]
 3536              	@ main.c:1571: 				strcat (buf_tx,unt2str(n++,str_num,5));
 3537 0144 1F49     		ldr	r1, .L272+44	@,
 3538 0146 0522     		movs	r2, #5	@,
 3539              	@ main.c:1569: 				strcpy (buf_tx," ");		
 3540 0148 A9F800E0 		strh	lr, [r9]	@ movhi	@ tmp242, MEM[(void *)&buf_tx]
 3541              	@ main.c:1571: 				strcat (buf_tx,unt2str(n++,str_num,5));
 3542 014c 0293     		str	r3, [sp, #8]	@ n, %sfp
 3543 014e FFF7FEFF 		bl	unt2str	@
 3544 0152 0646     		mov	r6, r0	@ _30,
 3545 0154 5046     		mov	r0, r10	@, tmp265
 3546 0156 FFF7FEFF 		bl	strlen	@
 3547 015a 3146     		mov	r1, r6	@, _30
 3548 015c 4844     		add	r0, r0, r9	@, tmp263
 3549 015e FFF7FEFF 		bl	stpcpy	@
 3550              	@ main.c:1572: 				strcat (buf_tx," ");
 3551 0162 194B     		ldr	r3, .L272+48	@ tmp278,
 3552 0164 A0EB0906 		sub	r6, r0, r9	@ _64, tmp249, tmp263
 3553 0168 1A88     		ldrh	r2, [r3]	@ unaligned	@ tmp254, MEM[(void *)" "]
 3554              	@ main.c:1573: 				message_length = strlen(buf_tx); 
 3555 016a 0136     		adds	r6, r6, #1	@ tmp255, _64,
 3556              	@ main.c:1575: 				SX1278_LoRaEntryTx (&SX1278_1, message_length, 2000);
 3557 016c F6B2     		uxtb	r6, r6	@ _32, tmp255
 3558              	@ main.c:1572: 				strcat (buf_tx," ");
 3559 016e 0280     		strh	r2, [r0]	@ unaligned	@ tmp254, MEM[(void *)_65]
 3560              	@ main.c:1575: 				SX1278_LoRaEntryTx (&SX1278_1, message_length, 2000);
 3561 0170 3146     		mov	r1, r6	@, _32
 3562 0172 4FF4FA62 		mov	r2, #2000	@,
 3563 0176 4046     		mov	r0, r8	@, tmp266
 3564 0178 FFF7FEFF 		bl	SX1278_LoRaEntryTx	@
 3565              	@ main.c:1579: 				SX1278_LoRaTxPacketStart(&SX1278_1, (uint8_t *) buf_tx, message_length);  // Sta
 3566 017c 3246     		mov	r2, r6	@, _32
 3567 017e 5146     		mov	r1, r10	@, tmp265
 3568 0180 4046     		mov	r0, r8	@, tmp266
 3569 0182 FFF7FEFF 		bl	SX1278_LoRaTxPacketStart	@
 3570              	@ main.c:1580: 				flag_9=1;	
 3571 0186 0122     		movs	r2, #1	@ tmp259,
 3572 0188 039B     		ldr	r3, [sp, #12]	@ _17, %sfp
 3573              	@ main.c:1581: 				SX1278_sleep(&SX1278_1);
 3574 018a 4046     		mov	r0, r8	@, tmp266
 3575              	@ main.c:1580: 				flag_9=1;	
 3576 018c 1A60     		str	r2, [r3]	@ tmp259, *_17
 3577              	@ main.c:1581: 				SX1278_sleep(&SX1278_1);
 3578 018e FFF7FEFF 		bl	SX1278_sleep	@
 3579              	@ main.c:1571: 				strcat (buf_tx,unt2str(n++,str_num,5));
 3580 0192 029B     		ldr	r3, [sp, #8]	@ n, %sfp
 3581 0194 1846     		mov	r0, r3	@ n, n
 3582 0196 C2E7     		b	.L268	@
 3583              	.L273:
 3584              		.align	2
 3585              	.L272:
 3586 0198 00100240 		.word	1073876992
 3587 019c 00040040 		.word	1073742848
 3588 01a0 00E100E0 		.word	-536813312
 3589 01a4 43430400 		.word	279363
 3590 01a8 000C0140 		.word	1073810432
 3591 01ac 00000000 		.word	.LANCHOR14
ARM GAS  /tmp/ccDfNsWv.s 			page 64


 3592 01b0 00001001 		.word	.LANCHOR8+17825792
 3593 01b4 B4012242 		.word	1109524916
 3594 01b8 00000000 		.word	trg0
 3595 01bc 10E000E0 		.word	-536813552
 3596 01c0 40548900 		.word	9000000
 3597 01c4 00000000 		.word	.LANCHOR17
 3598 01c8 28000000 		.word	.LC14
 3599 01cc 00000000 		.word	p_Fifo1
 3600 01d0 88012142 		.word	1109459336
 3601 01d4 04012142 		.word	1109459204
 3602 01d8 00000000 		.word	.LANCHOR15
 3603 01dc 00000000 		.word	.LANCHOR16
 3604              		.size	LoRaTX, .-LoRaTX
 3605              		.section	.text.col1,"ax",%progbits
 3606              		.align	1
 3607              		.p2align 2,,3
 3608              		.global	col1
 3609              		.syntax unified
 3610              		.thumb
 3611              		.thumb_func
 3612              		.fpu softvfp
 3613              		.type	col1, %function
 3614              	col1:
 3615              		@ args = 0, pretend = 0, frame = 0
 3616              		@ frame_needed = 0, uses_anonymous_args = 0
 3617              		@ link register save eliminated.
 3618              	@ main.c:1699: 			dma_buf[0]=0xe0;	dma_buf[8]  =0xe0;	dma_buf[16]=0xe0;
 3619 0000 4FF0E032 		mov	r2, #-522133280	@ tmp111,
 3620 0004 044B     		ldr	r3, .L275	@ tmp110,
 3621              	@ main.c:1702: 			dma_buf[3]=0xe0;	dma_buf[11] =0xe0;	dma_buf[19]=0xe0;
 3622 0006 0549     		ldr	r1, .L275+4	@ tmp113,
 3623              	@ main.c:1699: 			dma_buf[0]=0xe0;	dma_buf[8]  =0xe0;	dma_buf[16]=0xe0;
 3624 0008 1A60     		str	r2, [r3]	@ tmp111, MEM[(u08[24] *)&dma_buf]
 3625              	@ main.c:1702: 			dma_buf[3]=0xe0;	dma_buf[11] =0xe0;	dma_buf[19]=0xe0;
 3626 000a C3E90222 		strd	r2, r2, [r3, #8]	@ tmp111, tmp111, tmp110,
 3627 000e C3E90422 		strd	r2, r2, [r3, #16]	@ tmp111, tmp111, tmp110,
 3628 0012 5960     		str	r1, [r3, #4]	@ tmp113, MEM[(u08[24] *)&dma_buf + 4B]
 3629              	@ main.c:1707: 		}
 3630 0014 7047     		bx	lr	@
 3631              	.L276:
 3632 0016 00BF     		.align	2
 3633              	.L275:
 3634 0018 00000000 		.word	.LANCHOR18
 3635 001c E0F8F8F8 		.word	-117901088
 3636              		.size	col1, .-col1
 3637              		.section	.text.col2,"ax",%progbits
 3638              		.align	1
 3639              		.p2align 2,,3
 3640              		.global	col2
 3641              		.syntax unified
 3642              		.thumb
 3643              		.thumb_func
 3644              		.fpu softvfp
 3645              		.type	col2, %function
 3646              	col2:
 3647              		@ args = 0, pretend = 0, frame = 0
 3648              		@ frame_needed = 0, uses_anonymous_args = 0
ARM GAS  /tmp/ccDfNsWv.s 			page 65


 3649              		@ link register save eliminated.
 3650              	@ main.c:1709: 			dma_buf[0]=0xe0;	dma_buf[8]  =0xe0;	dma_buf[16]=0xe0;
 3651 0000 4FF0E032 		mov	r2, #-522133280	@ tmp111,
 3652 0004 034B     		ldr	r3, .L278	@ tmp110,
 3653              	@ main.c:1712: 			dma_buf[3]=0xe0;	dma_buf[11] =0xe0;	dma_buf[19]=0xe0;
 3654 0006 C3E90022 		strd	r2, r2, [r3]	@ tmp111, tmp111, tmp110
 3655 000a C3E90222 		strd	r2, r2, [r3, #8]	@ tmp111, tmp111, tmp110,
 3656 000e C3E90422 		strd	r2, r2, [r3, #16]	@ tmp111, tmp111, tmp110,
 3657              	@ main.c:1717: 	}	
 3658 0012 7047     		bx	lr	@
 3659              	.L279:
 3660              		.align	2
 3661              	.L278:
 3662 0014 00000000 		.word	.LANCHOR18
 3663              		.size	col2, .-col2
 3664              		.section	.text.col0,"ax",%progbits
 3665              		.align	1
 3666              		.p2align 2,,3
 3667              		.global	col0
 3668              		.syntax unified
 3669              		.thumb
 3670              		.thumb_func
 3671              		.fpu softvfp
 3672              		.type	col0, %function
 3673              	col0:
 3674              		@ args = 0, pretend = 0, frame = 0
 3675              		@ frame_needed = 0, uses_anonymous_args = 0
 3676              		@ link register save eliminated.
 3677              	@ main.c:1719: 			dma_buf[0]=0;	dma_buf[8]  =0x0;	dma_buf[16]=0x0;
 3678 0000 0022     		movs	r2, #0	@ tmp111,
 3679 0002 044B     		ldr	r3, .L281	@ tmp110,
 3680              	@ main.c:1722: 			dma_buf[3]=0;	dma_buf[11] =0x0;	dma_buf[19]=0x0;
 3681 0004 C3E90022 		strd	r2, r2, [r3]	@ tmp111, tmp111, tmp110
 3682 0008 C3E90222 		strd	r2, r2, [r3, #8]	@ tmp111, tmp111, tmp110,
 3683 000c C3E90422 		strd	r2, r2, [r3, #16]	@ tmp111, tmp111, tmp110,
 3684              	@ main.c:1727: 	}
 3685 0010 7047     		bx	lr	@
 3686              	.L282:
 3687 0012 00BF     		.align	2
 3688              	.L281:
 3689 0014 00000000 		.word	.LANCHOR18
 3690              		.size	col0, .-col0
 3691              		.section	.text.ws2812led,"ax",%progbits
 3692              		.align	1
 3693              		.p2align 2,,3
 3694              		.global	ws2812led
 3695              		.syntax unified
 3696              		.thumb
 3697              		.thumb_func
 3698              		.fpu softvfp
 3699              		.type	ws2812led, %function
 3700              	ws2812led:
 3701              		@ args = 0, pretend = 0, frame = 0
 3702              		@ frame_needed = 0, uses_anonymous_args = 0
 3703 0000 2DE9F041 		push	{r4, r5, r6, r7, r8, lr}	@
 3704              	@ main.c:1739: 		SPI1->CR1 = SPI_CR1_SSM|SPI_CR1_SSI|SPI_CR1_MSTR|SPI_CR1_BR_0|SPI_CR1_BR_1;	// 0x0
 3705 0004 4FF44774 		mov	r4, #796	@ tmp152,
ARM GAS  /tmp/ccDfNsWv.s 			page 66


 3706              	@ main.c:1733: 		GPIOA->CRL = (GPIOA->CRL & 0x0000ffff) | 0xBBB30000;	// PA5~7
 3707 0008 3648     		ldr	r0, .L295	@ tmp143,
 3708              	@ main.c:1737: 		RCC->APB2ENR   |= RCC_APB2ENR_SPI1EN;
 3709 000a 3749     		ldr	r1, .L295+4	@ tmp148,
 3710              	@ main.c:1733: 		GPIOA->CRL = (GPIOA->CRL & 0x0000ffff) | 0xBBB30000;	// PA5~7
 3711 000c 0368     		ldr	r3, [r0]	@ _2, MEM[(struct GPIO_TypeDef *)1073809408B].CRL
 3712              	@ main.c:1739: 		SPI1->CR1 = SPI_CR1_SSM|SPI_CR1_SSI|SPI_CR1_MSTR|SPI_CR1_BR_0|SPI_CR1_BR_1;	// 0x0
 3713 000e 374A     		ldr	r2, .L295+8	@ tmp150,
 3714              	@ main.c:1733: 		GPIOA->CRL = (GPIOA->CRL & 0x0000ffff) | 0xBBB30000;	// PA5~7
 3715 0010 9BB2     		uxth	r3, r3	@ tmp144, _2
 3716 0012 43F03B43 		orr	r3, r3, #-1157627904	@ _5, tmp144,
 3717 0016 43F43303 		orr	r3, r3, #11730944	@ _5, _5,
 3718 001a 0360     		str	r3, [r0]	@ _5, MEM[(struct GPIO_TypeDef *)1073809408B].CRL
 3719              	@ main.c:1752: 		DMA1_Channel3->CCR 	= 0;										//Disable channel
 3720 001c 0020     		movs	r0, #0	@ tmp167,
 3721              	@ main.c:1737: 		RCC->APB2ENR   |= RCC_APB2ENR_SPI1EN;
 3722 001e 8B69     		ldr	r3, [r1, #24]	@ _7, MEM[(struct RCC_TypeDef *)1073876992B].APB2ENR
 3723              	@ main.c:1767: 		DMA1_Channel3->CCR =  CCR_reg;	
 3724 0020 B026     		movs	r6, #176	@ tmp175,
 3725              	@ main.c:1737: 		RCC->APB2ENR   |= RCC_APB2ENR_SPI1EN;
 3726 0022 43F48053 		orr	r3, r3, #4096	@ _8, _7,
 3727 0026 8B61     		str	r3, [r1, #24]	@ _8, MEM[(struct RCC_TypeDef *)1073876992B].APB2ENR
 3728              	@ main.c:1739: 		SPI1->CR1 = SPI_CR1_SSM|SPI_CR1_SSI|SPI_CR1_MSTR|SPI_CR1_BR_0|SPI_CR1_BR_1;	// 0x0
 3729 0028 1480     		strh	r4, [r2]	@ movhi	@ tmp152, MEM[(struct SPI_TypeDef *)1073819648B].CR1
 3730              	@ main.c:1740: 		SPI1->CR2 |= SPI_CR2_TXDMAEN;
 3731 002a 9388     		ldrh	r3, [r2, #4]	@, MEM[(struct SPI_TypeDef *)1073819648B].CR2
 3732              	@ main.c:1774: 		u08 fl=0;
 3733 002c 0446     		mov	r4, r0	@ fl, tmp167
 3734              	@ main.c:1740: 		SPI1->CR2 |= SPI_CR2_TXDMAEN;
 3735 002e 43F00203 		orr	r3, r3, #2	@ _10, MEM[(struct SPI_TypeDef *)1073819648B].CR2,
 3736 0032 9380     		strh	r3, [r2, #4]	@ movhi	@ _10, MEM[(struct SPI_TypeDef *)1073819648B].CR2
 3737              	@ main.c:1741: 		SPI1->CR1 |= SPI_CR1_SPE;		
 3738 0034 1388     		ldrh	r3, [r2]	@, MEM[(struct SPI_TypeDef *)1073819648B].CR1
 3739              	@ main.c:1769: 		DMA1->IFCR = DMA_IFCR_CGIF3 | DMA_IFCR_CTCIF3;
 3740 0036 4FF44075 		mov	r5, #768	@ tmp177,
 3741              	@ main.c:1741: 		SPI1->CR1 |= SPI_CR1_SPE;		
 3742 003a 43F04003 		orr	r3, r3, #64	@ _12, MEM[(struct SPI_TypeDef *)1073819648B].CR1,
 3743 003e 1380     		strh	r3, [r2]	@ movhi	@ _12, MEM[(struct SPI_TypeDef *)1073819648B].CR1
 3744              	@ main.c:1749: 		col0();
 3745 0040 FFF7FEFF 		bl	col0	@
 3746              	@ main.c:1756: 		DMA1_Channel3->CNDTR = 24;		//Buffor size :
 3747 0044 4FF0180C 		mov	ip, #24	@ tmp173,
 3748              	@ main.c:1751: 		RCC->AHBENR   			|= RCC_AHBENR_DMA1EN;		// enable clock for DMA1
 3749 0048 4A69     		ldr	r2, [r1, #20]	@ _13, MEM[(struct RCC_TypeDef *)1073876992B].AHBENR
 3750              	@ main.c:1752: 		DMA1_Channel3->CCR 	= 0;										//Disable channel
 3751 004a 294B     		ldr	r3, .L295+12	@ tmp166,
 3752              	@ main.c:1751: 		RCC->AHBENR   			|= RCC_AHBENR_DMA1EN;		// enable clock for DMA1
 3753 004c 42F00102 		orr	r2, r2, #1	@ _14, _13,
 3754 0050 4A61     		str	r2, [r1, #20]	@ _14, MEM[(struct RCC_TypeDef *)1073876992B].AHBENR
 3755              	@ main.c:1753: 		DMA1_Channel3->CMAR = (uint32_t)dma_buf;	 	//Destination address:
 3756 0052 2849     		ldr	r1, .L295+16	@ tmp168,
 3757              	@ main.c:1754: 		DMA1_Channel3->CPAR = (uint32_t)&SPI1->DR;	//Source PERIPHERAL address:
 3758 0054 284A     		ldr	r2, .L295+20	@ tmp171,
 3759              	@ main.c:1752: 		DMA1_Channel3->CCR 	= 0;										//Disable channel
 3760 0056 1860     		str	r0, [r3]	@ tmp167, MEM[(struct DMA_Channel_TypeDef *)1073872944B].CCR
 3761              	@ main.c:1753: 		DMA1_Channel3->CMAR = (uint32_t)dma_buf;	 	//Destination address:
 3762 0058 D960     		str	r1, [r3, #12]	@ tmp168, MEM[(struct DMA_Channel_TypeDef *)1073872944B].CMAR
ARM GAS  /tmp/ccDfNsWv.s 			page 67


 3763              	@ main.c:1754: 		DMA1_Channel3->CPAR = (uint32_t)&SPI1->DR;	//Source PERIPHERAL address:
 3764 005a 9A60     		str	r2, [r3, #8]	@ tmp171, MEM[(struct DMA_Channel_TypeDef *)1073872944B].CPAR
 3765              	@ main.c:1769: 		DMA1->IFCR = DMA_IFCR_CGIF3 | DMA_IFCR_CTCIF3;
 3766 005c 274A     		ldr	r2, .L295+24	@ tmp176,
 3767              	@ main.c:1756: 		DMA1_Channel3->CNDTR = 24;		//Buffor size :
 3768 005e C3F804C0 		str	ip, [r3, #4]	@ tmp173, MEM[(struct DMA_Channel_TypeDef *)1073872944B].CNDTR
 3769              	@ main.c:1767: 		DMA1_Channel3->CCR =  CCR_reg;	
 3770 0062 1E60     		str	r6, [r3]	@ tmp175, MEM[(struct DMA_Channel_TypeDef *)1073872944B].CCR
 3771              	@ main.c:1769: 		DMA1->IFCR = DMA_IFCR_CGIF3 | DMA_IFCR_CTCIF3;
 3772 0064 5560     		str	r5, [r2, #4]	@ tmp177, MEM[(struct DMA_TypeDef *)1073872896B].IFCR
 3773              	@ main.c:1770: 		DMA1_Channel3->CCR |= DMA_CCR1_EN;
 3774 0066 1A68     		ldr	r2, [r3]	@ _16, MEM[(struct DMA_Channel_TypeDef *)1073872944B].CCR
 3775              	@ main.c:1773: 		UaPutK("\r\n DMA start...");
 3776 0068 2548     		ldr	r0, .L295+28	@,
 3777              	@ main.c:1770: 		DMA1_Channel3->CCR |= DMA_CCR1_EN;
 3778 006a 42F00102 		orr	r2, r2, #1	@ _17, _16,
 3779 006e 1A60     		str	r2, [r3]	@ _17, MEM[(struct DMA_Channel_TypeDef *)1073872944B].CCR
 3780              	@ main.c:1773: 		UaPutK("\r\n DMA start...");
 3781 0070 FFF7FEFF 		bl	UaPutK	@
 3782 0074 234F     		ldr	r7, .L295+32	@ tmp206,
 3783 0076 DFF8A080 		ldr	r8, .L295+52	@ tmp208,
 3784 007a 234E     		ldr	r6, .L295+36	@ tmp207,
 3785              	@ main.c:1778: 			if(STCLK_MS*100 < (trg0 - SysTick->VAL)){
 3786 007c 2348     		ldr	r0, .L295+40	@ tmp182,
 3787              	@ main.c:1805: 					LED ^= 1;
 3788 007e 244D     		ldr	r5, .L295+44	@ tmp209,
 3789              	.L290:
 3790              	@ main.c:1778: 			if(STCLK_MS*100 < (trg0 - SysTick->VAL)){
 3791 0080 DFF898C0 		ldr	ip, .L295+56	@ tmp184,
 3792              	@ main.c:1782: 			if(STCLK_MS*200 < (trg1 - SysTick->VAL)){
 3793 0084 2349     		ldr	r1, .L295+48	@ tmp190,
 3794              	.L285:
 3795              	@ main.c:1778: 			if(STCLK_MS*100 < (trg0 - SysTick->VAL)){
 3796 0086 3B68     		ldr	r3, [r7]	@ trg0.108_18, trg0
 3797 0088 8268     		ldr	r2, [r0, #8]	@ _19, MEM[(struct SysTick_Type *)3758153744B].VAL
 3798 008a 9B1A     		subs	r3, r3, r2	@ tmp183, trg0.108_18, _19
 3799 008c 6345     		cmp	r3, ip	@ tmp183, tmp184
 3800              	@ main.c:1779: 				trg0 = SysTick->VAL;
 3801 008e 84BF     		itt	hi
 3802 0090 8368     		ldrhi	r3, [r0, #8]	@ _21, MEM[(struct SysTick_Type *)3758153744B].VAL
 3803 0092 3B60     		strhi	r3, [r7]	@ _21, trg0
 3804              	@ main.c:1782: 			if(STCLK_MS*200 < (trg1 - SysTick->VAL)){
 3805 0094 D8F80030 		ldr	r3, [r8]	@ trg1.109_22, trg1
 3806 0098 8268     		ldr	r2, [r0, #8]	@ _23, MEM[(struct SysTick_Type *)3758153744B].VAL
 3807 009a 9B1A     		subs	r3, r3, r2	@ tmp189, trg1.109_22, _23
 3808 009c 8B42     		cmp	r3, r1	@ tmp189, tmp190
 3809 009e F2D9     		bls	.L285	@,
 3810              	@ main.c:1783: 				trg1 = SysTick->VAL;
 3811 00a0 8368     		ldr	r3, [r0, #8]	@ _25, MEM[(struct SysTick_Type *)3758153744B].VAL
 3812 00a2 C8F80030 		str	r3, [r8]	@ _25, trg1
 3813              	@ inc/tool/delay.h:104: 		delay_us = SysTick->VAL; 
 3814 00a6 8368     		ldr	r3, [r0, #8]	@ _55, MEM[(struct SysTick_Type *)3758153744B].VAL
 3815 00a8 3360     		str	r3, [r6]	@ _55, delay_us
 3816              	.L286:
 3817              	@ inc/tool/delay.h:105: 		while( STCLK_US*us > (delay_us - SysTick->VAL) );
 3818 00aa 3368     		ldr	r3, [r6]	@ delay_us.48_56, delay_us
 3819 00ac 8268     		ldr	r2, [r0, #8]	@ _57, MEM[(struct SysTick_Type *)3758153744B].VAL
ARM GAS  /tmp/ccDfNsWv.s 			page 68


 3820 00ae 9B1A     		subs	r3, r3, r2	@ tmp197, delay_us.48_56, _57
 3821 00b0 B3F5E17F 		cmp	r3, #450	@ tmp197,
 3822 00b4 F9D3     		bcc	.L286	@,
 3823              	@ main.c:1799: 				if(fl){
 3824 00b6 74B1     		cbz	r4, .L287	@ fl,
 3825              	@ main.c:1800: 					col1();
 3826 00b8 FFF7FEFF 		bl	col1	@
 3827              	@ main.c:1801: 					fl=0;
 3828 00bc 0024     		movs	r4, #0	@ fl,
 3829              	.L288:
 3830              	@ inc/tool/delay.h:105: 		while( STCLK_US*us > (delay_us - SysTick->VAL) );
 3831 00be 40F62311 		movw	r1, #2339	@ tmp205,
 3832              	@ inc/tool/delay.h:104: 		delay_us = SysTick->VAL; 
 3833 00c2 8368     		ldr	r3, [r0, #8]	@ _59, MEM[(struct SysTick_Type *)3758153744B].VAL
 3834 00c4 3360     		str	r3, [r6]	@ _59, delay_us
 3835              	.L289:
 3836              	@ inc/tool/delay.h:105: 		while( STCLK_US*us > (delay_us - SysTick->VAL) );
 3837 00c6 3368     		ldr	r3, [r6]	@ delay_us.48_60, delay_us
 3838 00c8 8268     		ldr	r2, [r0, #8]	@ _61, MEM[(struct SysTick_Type *)3758153744B].VAL
 3839 00ca 9B1A     		subs	r3, r3, r2	@ tmp204, delay_us.48_60, _61
 3840 00cc 8B42     		cmp	r3, r1	@ tmp204, tmp205
 3841 00ce FAD9     		bls	.L289	@,
 3842              	@ main.c:1809: 				col0();
 3843 00d0 FFF7FEFF 		bl	col0	@
 3844 00d4 D4E7     		b	.L290	@
 3845              	.L287:
 3846              	@ main.c:1804: 					fl=1;
 3847 00d6 0124     		movs	r4, #1	@ fl,
 3848              	@ main.c:1803: 					col1();
 3849 00d8 FFF7FEFF 		bl	col1	@
 3850              	@ main.c:1805: 					LED ^= 1;
 3851 00dc 2B68     		ldr	r3, [r5]	@ _26, MEM[(volatile long unsigned int *)1109524916B]
 3852 00de 6340     		eors	r3, r3, r4	@, _27, _26,
 3853 00e0 2B60     		str	r3, [r5]	@ _27, MEM[(volatile long unsigned int *)1109524916B]
 3854 00e2 ECE7     		b	.L288	@
 3855              	.L296:
 3856              		.align	2
 3857              	.L295:
 3858 00e4 00080140 		.word	1073809408
 3859 00e8 00100240 		.word	1073876992
 3860 00ec 00300140 		.word	1073819648
 3861 00f0 30000240 		.word	1073872944
 3862 00f4 00000000 		.word	.LANCHOR18
 3863 00f8 0C300140 		.word	1073819660
 3864 00fc 00000240 		.word	1073872896
 3865 0100 00000000 		.word	.LC50
 3866 0104 00000000 		.word	trg0
 3867 0108 00000000 		.word	delay_us
 3868 010c 10E000E0 		.word	-536813552
 3869 0110 B4012242 		.word	1109524916
 3870 0114 40771B00 		.word	1800000
 3871 0118 00000000 		.word	trg1
 3872 011c A0BB0D00 		.word	900000
 3873              		.size	ws2812led, .-ws2812led
 3874              		.section	.text.lexmark_lcd,"ax",%progbits
 3875              		.align	1
 3876              		.p2align 2,,3
ARM GAS  /tmp/ccDfNsWv.s 			page 69


 3877              		.global	lexmark_lcd
 3878              		.syntax unified
 3879              		.thumb
 3880              		.thumb_func
 3881              		.fpu softvfp
 3882              		.type	lexmark_lcd, %function
 3883              	lexmark_lcd:
 3884              		@ Volatile: function does not return.
 3885              		@ args = 0, pretend = 0, frame = 8
 3886              		@ frame_needed = 0, uses_anonymous_args = 0
 3887 0000 00B5     		push	{lr}	@
 3888 0002 83B0     		sub	sp, sp, #12	@,,
 3889              	@ main.c:1890: 		UC1608_Init();
 3890 0004 FFF7FEFF 		bl	UC1608_Init	@
 3891              	@ main.c:1896: 		UC1608_Clr();
 3892 0008 FFF7FEFF 		bl	UC1608_Clr	@
 3893              	@ main.c:1898: 		UC1608_str (0, 0,"Witaj szkolo         ");
 3894 000c 0021     		movs	r1, #0	@,
 3895 000e 174A     		ldr	r2, .L302	@,
 3896 0010 0846     		mov	r0, r1	@,
 3897 0012 FFF7FEFF 		bl	UC1608_str	@
 3898              	@ main.c:1899: 		UC1608_str (1, 0,"Zapraszam do pracy        ");
 3899 0016 164A     		ldr	r2, .L302+4	@,
 3900 0018 0021     		movs	r1, #0	@,
 3901 001a 0120     		movs	r0, #1	@,
 3902 001c FFF7FEFF 		bl	UC1608_str	@
 3903              	@ main.c:1900: 		UC1608_Refresh();
 3904 0020 FFF7FEFF 		bl	UC1608_Refresh	@
 3905              	@ inc/tool/delay.h:109: 		delay_us = SysTick->VAL; 
 3906 0024 134B     		ldr	r3, .L302+8	@ tmp122,
 3907 0026 144A     		ldr	r2, .L302+12	@ tmp137,
 3908              	@ inc/tool/delay.h:110: 		while( STCLK_MS*ms > (delay_us - SysTick->VAL) );
 3909 0028 1D46     		mov	r5, r3	@ tmp125, tmp122
 3910              	@ inc/tool/delay.h:109: 		delay_us = SysTick->VAL; 
 3911 002a 9B68     		ldr	r3, [r3, #8]	@ _17, MEM[(struct SysTick_Type *)3758153744B].VAL
 3912              	@ inc/tool/delay.h:110: 		while( STCLK_MS*ms > (delay_us - SysTick->VAL) );
 3913 002c 1349     		ldr	r1, .L302+16	@ tmp127,
 3914              	@ inc/tool/delay.h:109: 		delay_us = SysTick->VAL; 
 3915 002e 1360     		str	r3, [r2]	@ _17, delay_us
 3916              	.L298:
 3917              	@ inc/tool/delay.h:110: 		while( STCLK_MS*ms > (delay_us - SysTick->VAL) );
 3918 0030 1368     		ldr	r3, [r2]	@ delay_us.116_18, delay_us
 3919 0032 A868     		ldr	r0, [r5, #8]	@ _19, MEM[(struct SysTick_Type *)3758153744B].VAL
 3920 0034 1B1A     		subs	r3, r3, r0	@ tmp126, delay_us.116_18, _19
 3921 0036 8B42     		cmp	r3, r1	@ tmp126, tmp127
 3922 0038 FAD9     		bls	.L298	@,
 3923              	@ main.c:1903: 		UC1608_str (1, 0,"                          ");
 3924 003a 114A     		ldr	r2, .L302+20	@,
 3925 003c 0021     		movs	r1, #0	@,
 3926 003e 0120     		movs	r0, #1	@,
 3927 0040 FFF7FEFF 		bl	UC1608_str	@
 3928              	@ main.c:1904: 		UC1608_Refresh();
 3929 0044 FFF7FEFF 		bl	UC1608_Refresh	@
 3930              	@ inc/tool/delay.h:91: 		Timt = SysTick->VAL;
 3931 0048 AA68     		ldr	r2, [r5, #8]	@ _16, MEM[(struct SysTick_Type *)3758153744B].VAL
 3932 004a 0E4B     		ldr	r3, .L302+24	@ tmp130,
 3933              	@ main.c:1909: 		UaPutS(" T[us]="); sint2uart(tim/TIM_US);
ARM GAS  /tmp/ccDfNsWv.s 			page 70


 3934 004c 0E48     		ldr	r0, .L302+28	@,
 3935              	@ inc/tool/delay.h:91: 		Timt = SysTick->VAL;
 3936 004e 1A60     		str	r2, [r3]	@ _16, Timt
 3937              	@ inc/tool/delay.h:94: 		*tim = (Timt - SysTick->VAL);
 3938 0050 1C68     		ldr	r4, [r3]	@ Timt.47_13, Timt
 3939 0052 AB68     		ldr	r3, [r5, #8]	@ _14, MEM[(struct SysTick_Type *)3758153744B].VAL
 3940 0054 E41A     		subs	r4, r4, r3	@ _15, Timt.47_13, _14
 3941 0056 0194     		str	r4, [sp, #4]	@ _15, MEM[(volatile u32 *)&tim]
 3942              	@ main.c:1909: 		UaPutS(" T[us]="); sint2uart(tim/TIM_US);
 3943 0058 FFF7FEFF 		bl	UaPutS	@
 3944 005c 0B48     		ldr	r0, .L302+32	@ tmp136,
 3945 005e A0FB0430 		umull	r3, r0, r0, r4	@ tmp138, tmp135, tmp136, _15
 3946 0062 4008     		lsrs	r0, r0, #1	@, tmp135,
 3947 0064 FFF7FEFF 		bl	sint2uart	@
 3948              	.L299:
 3949 0068 FEE7     		b	.L299	@
 3950              	.L303:
 3951 006a 00BF     		.align	2
 3952              	.L302:
 3953 006c 00000000 		.word	.LC51
 3954 0070 18000000 		.word	.LC52
 3955 0074 10E000E0 		.word	-536813552
 3956 0078 00000000 		.word	delay_us
 3957 007c 3F548900 		.word	8999999
 3958 0080 34000000 		.word	.LC53
 3959 0084 00000000 		.word	Timt
 3960 0088 50000000 		.word	.LC54
 3961 008c 398EE338 		.word	954437177
 3962              		.size	lexmark_lcd, .-lexmark_lcd
 3963              		.section	.text.softUTX_init,"ax",%progbits
 3964              		.align	1
 3965              		.p2align 2,,3
 3966              		.global	softUTX_init
 3967              		.syntax unified
 3968              		.thumb
 3969              		.thumb_func
 3970              		.fpu softvfp
 3971              		.type	softUTX_init, %function
 3972              	softUTX_init:
 3973              		@ args = 0, pretend = 0, frame = 0
 3974              		@ frame_needed = 0, uses_anonymous_args = 0
 3975              		@ link register save eliminated.
 3976              	@ main.c:1979: 		GPIOC->CRH = (GPIOC->CRH & 0xf0ffffff) | 0x01000000;  				// PC14 = softUART
 3977 0000 034A     		ldr	r2, .L305	@ tmp113,
 3978 0002 5368     		ldr	r3, [r2, #4]	@ _1, MEM[(struct GPIO_TypeDef *)1073811456B].CRH
 3979 0004 23F07063 		bic	r3, r3, #251658240	@ tmp114, _1,
 3980 0008 43F08073 		orr	r3, r3, #16777216	@ _3, tmp114,
 3981 000c 5360     		str	r3, [r2, #4]	@ _3, MEM[(struct GPIO_TypeDef *)1073811456B].CRH
 3982              	@ main.c:1980: 	}
 3983 000e 7047     		bx	lr	@
 3984              	.L306:
 3985              		.align	2
 3986              	.L305:
 3987 0010 00100140 		.word	1073811456
 3988              		.size	softUTX_init, .-softUTX_init
 3989              		.section	.text.sofUTX,"ax",%progbits
 3990              		.align	1
ARM GAS  /tmp/ccDfNsWv.s 			page 71


 3991              		.p2align 2,,3
 3992              		.global	sofUTX
 3993              		.syntax unified
 3994              		.thumb
 3995              		.thumb_func
 3996              		.fpu softvfp
 3997              		.type	sofUTX, %function
 3998              	sofUTX:
 3999              		@ args = 0, pretend = 0, frame = 8
 4000              		@ frame_needed = 0, uses_anonymous_args = 0
 4001              		@ link register save eliminated.
 4002              	@ main.c:1984: 		p_SofTX=0;				  //START Bit
 4003 0000 0021     		movs	r1, #0	@ tmp129,
 4004              	@ main.c:1981: void sofUTX(volatile u08 bTX)	{  /// Sotware Transmit USART Frame [8N1] with TIMER P
 4005 0002 F0B4     		push	{r4, r5, r6, r7}	@
 4006              	@ main.c:1984: 		p_SofTX=0;				  //START Bit
 4007 0004 194A     		ldr	r2, .L319	@ tmp128,
 4008              	@ inc/tool/delay.h:99: 		delay_us = SysTick->VAL; 
 4009 0006 1A4B     		ldr	r3, .L319+4	@ tmp130,
 4010              	@ main.c:1981: void sofUTX(volatile u08 bTX)	{  /// Sotware Transmit USART Frame [8N1] with TIMER P
 4011 0008 82B0     		sub	sp, sp, #8	@,,
 4012              	@ main.c:1981: void sofUTX(volatile u08 bTX)	{  /// Sotware Transmit USART Frame [8N1] with TIMER P
 4013 000a 8DF80700 		strb	r0, [sp, #7]	@ bTX, bTX
 4014              	@ main.c:1984: 		p_SofTX=0;				  //START Bit
 4015 000e 1160     		str	r1, [r2]	@ tmp129, MEM[(volatile long unsigned int *)1109524920B]
 4016              	@ inc/tool/delay.h:100: 		while( STCLK_DN*ns > (delay_us - SysTick->VAL) );
 4017 0010 1C46     		mov	r4, r3	@ tmp133, tmp130
 4018              	@ inc/tool/delay.h:99: 		delay_us = SysTick->VAL; 
 4019 0012 1849     		ldr	r1, .L319+8	@ tmp158,
 4020 0014 9B68     		ldr	r3, [r3, #8]	@ _16, MEM[(struct SysTick_Type *)3758153744B].VAL
 4021 0016 0B60     		str	r3, [r1]	@ _16, delay_us
 4022              	.L308:
 4023              	@ inc/tool/delay.h:100: 		while( STCLK_DN*ns > (delay_us - SysTick->VAL) );
 4024 0018 0B68     		ldr	r3, [r1]	@ delay_us.118_17, delay_us
 4025 001a A268     		ldr	r2, [r4, #8]	@ _18, MEM[(struct SysTick_Type *)3758153744B].VAL
 4026 001c 9B1A     		subs	r3, r3, r2	@ tmp134, delay_us.118_17, _18
 4027 001e 112B     		cmp	r3, #17	@ tmp134,
 4028 0020 FAD9     		bls	.L308	@,
 4029              	@ main.c:1982: 		u08  cTX = 1 ;
 4030 0022 0124     		movs	r4, #1	@ cTX,
 4031              	@ inc/tool/delay.h:100: 		while( STCLK_DN*ns > (delay_us - SysTick->VAL) );
 4032 0024 0825     		movs	r5, #8	@ ivtmp_3,
 4033              	@ main.c:1987: 		 if(bTX & cTX)  p_SofTX=1;
 4034 0026 2746     		mov	r7, r4	@ tmp160, cTX
 4035              	@ main.c:1988: 		 else 					p_SofTX=0;
 4036 0028 104E     		ldr	r6, .L319	@ tmp159,
 4037              	@ inc/tool/delay.h:99: 		delay_us = SysTick->VAL; 
 4038 002a 1148     		ldr	r0, .L319+4	@ tmp146,
 4039              	.L312:
 4040              	@ main.c:1987: 		 if(bTX & cTX)  p_SofTX=1;
 4041 002c 9DF80730 		ldrb	r3, [sp, #7]	@ zero_extendqisi2	@ bTX, bTX
 4042 0030 2340     		ands	r3, r3, r4	@ tmp140, bTX, cTX
 4043 0032 14BF     		ite	ne
 4044 0034 3760     		strne	r7, [r6]	@ tmp160, MEM[(volatile long unsigned int *)1109524920B]
 4045              	@ main.c:1988: 		 else 					p_SofTX=0;
 4046 0036 3360     		streq	r3, [r6]	@ tmp140, MEM[(volatile long unsigned int *)1109524920B]
 4047              	@ inc/tool/delay.h:99: 		delay_us = SysTick->VAL; 
ARM GAS  /tmp/ccDfNsWv.s 			page 72


 4048 0038 8368     		ldr	r3, [r0, #8]	@ _20, MEM[(struct SysTick_Type *)3758153744B].VAL
 4049              	@ main.c:1989: 		 cTX <<= 1;
 4050 003a 6400     		lsls	r4, r4, #1	@ tmp145, cTX,
 4051 003c E4B2     		uxtb	r4, r4	@ cTX, tmp145
 4052              	@ inc/tool/delay.h:99: 		delay_us = SysTick->VAL; 
 4053 003e 0B60     		str	r3, [r1]	@ _20, delay_us
 4054              	.L311:
 4055              	@ inc/tool/delay.h:100: 		while( STCLK_DN*ns > (delay_us - SysTick->VAL) );
 4056 0040 0B68     		ldr	r3, [r1]	@ delay_us.118_21, delay_us
 4057 0042 8268     		ldr	r2, [r0, #8]	@ _22, MEM[(struct SysTick_Type *)3758153744B].VAL
 4058 0044 9B1A     		subs	r3, r3, r2	@ tmp150, delay_us.118_21, _22
 4059 0046 112B     		cmp	r3, #17	@ tmp150,
 4060 0048 FAD9     		bls	.L311	@,
 4061              	@ main.c:1986: 		while(cTX != 0){		//Wait to send Data
 4062 004a 013D     		subs	r5, r5, #1	@ ivtmp_3, ivtmp_3,
 4063 004c EED1     		bne	.L312	@,
 4064              	@ main.c:1992: 		p_SofTX=1;				//STOP Bit		
 4065 004e 0122     		movs	r2, #1	@ tmp152,
 4066 0050 064B     		ldr	r3, .L319	@ tmp151,
 4067              	@ inc/tool/delay.h:105: 		while( STCLK_US*us > (delay_us - SysTick->VAL) );
 4068 0052 074C     		ldr	r4, .L319+4	@ tmp156,
 4069              	@ main.c:1992: 		p_SofTX=1;				//STOP Bit		
 4070 0054 1A60     		str	r2, [r3]	@ tmp152, MEM[(volatile long unsigned int *)1109524920B]
 4071              	@ inc/tool/delay.h:104: 		delay_us = SysTick->VAL; 
 4072 0056 8368     		ldr	r3, [r0, #8]	@ _12, MEM[(struct SysTick_Type *)3758153744B].VAL
 4073 0058 0B60     		str	r3, [r1]	@ _12, delay_us
 4074              	.L313:
 4075              	@ inc/tool/delay.h:105: 		while( STCLK_US*us > (delay_us - SysTick->VAL) );
 4076 005a 0B68     		ldr	r3, [r1]	@ delay_us.48_13, delay_us
 4077 005c A268     		ldr	r2, [r4, #8]	@ _14, MEM[(struct SysTick_Type *)3758153744B].VAL
 4078 005e 9B1A     		subs	r3, r3, r2	@ tmp157, delay_us.48_13, _14
 4079 0060 592B     		cmp	r3, #89	@ tmp157,
 4080 0062 FAD9     		bls	.L313	@,
 4081              	@ main.c:1994: 	}
 4082 0064 02B0     		add	sp, sp, #8	@,,
 4083              		@ sp needed	@
 4084 0066 F0BC     		pop	{r4, r5, r6, r7}	@
 4085 0068 7047     		bx	lr	@
 4086              	.L320:
 4087 006a 00BF     		.align	2
 4088              	.L319:
 4089 006c B8012242 		.word	1109524920
 4090 0070 10E000E0 		.word	-536813552
 4091 0074 00000000 		.word	delay_us
 4092              		.size	sofUTX, .-sofUTX
 4093              		.section	.text.ToLED,"ax",%progbits
 4094              		.align	1
 4095              		.p2align 2,,3
 4096              		.global	ToLED
 4097              		.syntax unified
 4098              		.thumb
 4099              		.thumb_func
 4100              		.fpu softvfp
 4101              		.type	ToLED, %function
 4102              	ToLED:
 4103              		@ args = 0, pretend = 0, frame = 0
 4104              		@ frame_needed = 0, uses_anonymous_args = 0
ARM GAS  /tmp/ccDfNsWv.s 			page 73


 4105 0000 70B5     		push	{r4, r5, r6, lr}	@
 4106              	@ main.c:1995: void ToLED(u16 B,u16 A,u08 dot)	{
 4107 0002 0546     		mov	r5, r0	@ B, B
 4108 0004 0C46     		mov	r4, r1	@ A, A
 4109 0006 1646     		mov	r6, r2	@ dot, dot
 4110              	@ main.c:1996: 		sofUTX(B&0x00ff);	// segment LO
 4111 0008 C0B2     		uxtb	r0, r0	@, B
 4112 000a FFF7FEFF 		bl	sofUTX	@
 4113              	@ main.c:1997: 		sofUTX(B>>8);			// segment HI
 4114 000e 280A     		lsrs	r0, r5, #8	@, B,
 4115 0010 FFF7FEFF 		bl	sofUTX	@
 4116              	@ main.c:1998: 		sofUTX(A&0x00ff);	// segment LO
 4117 0014 E0B2     		uxtb	r0, r4	@, A
 4118 0016 FFF7FEFF 		bl	sofUTX	@
 4119              	@ main.c:1999: 		sofUTX(A>>8);			// segment HI
 4120 001a 200A     		lsrs	r0, r4, #8	@, A,
 4121 001c FFF7FEFF 		bl	sofUTX	@
 4122              	@ main.c:2000: 		sofUTX(dot);
 4123 0020 3046     		mov	r0, r6	@, dot
 4124              	@ main.c:2001: 	}
 4125 0022 BDE87040 		pop	{r4, r5, r6, lr}	@
 4126              	@ main.c:2000: 		sofUTX(dot);
 4127 0026 FFF7FEBF 		b	sofUTX	@
 4128              		.size	ToLED, .-ToLED
 4129 002a 00BF     		.section	.text.cmd_LCD,"ax",%progbits
 4130              		.align	1
 4131              		.p2align 2,,3
 4132              		.global	cmd_LCD
 4133              		.syntax unified
 4134              		.thumb
 4135              		.thumb_func
 4136              		.fpu softvfp
 4137              		.type	cmd_LCD, %function
 4138              	cmd_LCD:
 4139              		@ args = 0, pretend = 0, frame = 0
 4140              		@ frame_needed = 0, uses_anonymous_args = 0
 4141 0000 2DE9F041 		push	{r4, r5, r6, r7, r8, lr}	@
 4142              	@ main.c:2006: 			if (byte & 0x80)	sMOSI = 1;
 4143 0004 4FF0010E 		mov	lr, #1	@ tmp147,
 4144              	@ main.c:2002: void cmd_LCD(uint8_t byte)	{
 4145 0008 0825     		movs	r5, #8	@ ivtmp_2,
 4146              	@ main.c:2009: 			sSCK = 1; /* a slave latches input data bit */
 4147 000a F046     		mov	r8, lr	@ MEM[(volatile long unsigned int *)1109459348B], tmp147
 4148              	@ main.c:2007: 			else							sMOSI = 0;
 4149 000c 0027     		movs	r7, #0	@ tmp146,
 4150 000e 1249     		ldr	r1, .L333	@ tmp144,
 4151 0010 DFF850C0 		ldr	ip, .L333+12	@ tmp145,
 4152              	@ main.c:2009: 			sSCK = 1; /* a slave latches input data bit */
 4153 0014 114E     		ldr	r6, .L333+4	@ tmp129,
 4154              	@ inc/tool/delay.h:104: 		delay_us = SysTick->VAL; 
 4155 0016 124A     		ldr	r2, .L333+8	@ tmp131,
 4156              	.L328:
 4157              	@ main.c:2006: 			if (byte & 0x80)	sMOSI = 1;
 4158 0018 0306     		lsls	r3, r0, #24	@, byte,
 4159 001a 4CBF     		ite	mi
 4160 001c CCF800E0 		strmi	lr, [ip]	@ tmp147, MEM[(volatile long unsigned int *)1109459356B]
 4161              	@ main.c:2007: 			else							sMOSI = 0;
ARM GAS  /tmp/ccDfNsWv.s 			page 74


 4162 0020 CCF80070 		strpl	r7, [ip]	@ tmp146, MEM[(volatile long unsigned int *)1109459356B]
 4163              	@ main.c:2009: 			sSCK = 1; /* a slave latches input data bit */
 4164 0024 C6F80080 		str	r8, [r6]	@ MEM[(volatile long unsigned int *)1109459348B], MEM[(volatile long unsigned int *)1
 4165              	@ inc/tool/delay.h:104: 		delay_us = SysTick->VAL; 
 4166 0028 9368     		ldr	r3, [r2, #8]	@ _18, MEM[(struct SysTick_Type *)3758153744B].VAL
 4167              	@ main.c:2008: 			byte <<= 1;
 4168 002a 4000     		lsls	r0, r0, #1	@ tmp128, byte,
 4169 002c C0B2     		uxtb	r0, r0	@ byte, tmp128
 4170              	@ inc/tool/delay.h:104: 		delay_us = SysTick->VAL; 
 4171 002e 0B60     		str	r3, [r1]	@ _18, delay_us
 4172              	.L326:
 4173              	@ inc/tool/delay.h:105: 		while( STCLK_US*us > (delay_us - SysTick->VAL) );
 4174 0030 0B68     		ldr	r3, [r1]	@ delay_us.48_19, delay_us
 4175 0032 9468     		ldr	r4, [r2, #8]	@ _20, MEM[(struct SysTick_Type *)3758153744B].VAL
 4176 0034 1B1B     		subs	r3, r3, r4	@ tmp135, delay_us.48_19, _20
 4177 0036 112B     		cmp	r3, #17	@ tmp135,
 4178 0038 FAD9     		bls	.L326	@,
 4179              	@ main.c:2011: 			sSCK = 0; /* a slave shifts out next output data bit */
 4180 003a 3760     		str	r7, [r6]	@ tmp146, MEM[(volatile long unsigned int *)1109459348B]
 4181              	@ inc/tool/delay.h:104: 		delay_us = SysTick->VAL; 
 4182 003c 9368     		ldr	r3, [r2, #8]	@ _14, MEM[(struct SysTick_Type *)3758153744B].VAL
 4183 003e 0B60     		str	r3, [r1]	@ _14, delay_us
 4184              	.L327:
 4185              	@ inc/tool/delay.h:105: 		while( STCLK_US*us > (delay_us - SysTick->VAL) );
 4186 0040 0B68     		ldr	r3, [r1]	@ delay_us.48_15, delay_us
 4187 0042 9468     		ldr	r4, [r2, #8]	@ _16, MEM[(struct SysTick_Type *)3758153744B].VAL
 4188 0044 1B1B     		subs	r3, r3, r4	@ tmp142, delay_us.48_15, _16
 4189 0046 112B     		cmp	r3, #17	@ tmp142,
 4190 0048 FAD9     		bls	.L327	@,
 4191 004a 013D     		subs	r5, r5, #1	@ tmp143, ivtmp_2,
 4192              	@ main.c:2004: 		for(counter = 8; counter; counter--)
 4193 004c 15F0FF05 		ands	r5, r5, #255	@ ivtmp_2, tmp143,
 4194 0050 E2D1     		bne	.L328	@,
 4195              	@ main.c:2015: 	}
 4196 0052 BDE8F081 		pop	{r4, r5, r6, r7, r8, pc}	@
 4197              	.L334:
 4198 0056 00BF     		.align	2
 4199              	.L333:
 4200 0058 00000000 		.word	delay_us
 4201 005c 94012142 		.word	1109459348
 4202 0060 10E000E0 		.word	-536813552
 4203 0064 9C012142 		.word	1109459356
 4204              		.size	cmd_LCD, .-cmd_LCD
 4205              		.section	.text.CalculateLux,"ax",%progbits
 4206              		.align	1
 4207              		.p2align 2,,3
 4208              		.global	CalculateLux
 4209              		.syntax unified
 4210              		.thumb
 4211              		.thumb_func
 4212              		.fpu softvfp
 4213              		.type	CalculateLux, %function
 4214              	CalculateLux:
 4215              		@ args = 4, pretend = 0, frame = 0
 4216              		@ frame_needed = 0, uses_anonymous_args = 0
 4217              		@ link register save eliminated.
 4218 0000 30B4     		push	{r4, r5}	@
ARM GAS  /tmp/ccDfNsWv.s 			page 75


 4219              	@ main.c:2016: u16  CalculateLux(u16 iGain, u16 tInt, u16 ch0, u16 ch1, int iType)	{
 4220 0002 029D     		ldr	r5, [sp, #8]	@ iType, iType
 4221              	@ main.c:2034:     switch (tInt)
 4222 0004 0029     		cmp	r1, #0	@ tInt
 4223 0006 47D0     		beq	.L337	@
 4224              	@ main.c:2045:        chScale = (1 << CH_SCALE);
 4225 0008 40F6E774 		movw	r4, #4071	@ tmp153,
 4226 000c 0129     		cmp	r1, #1	@ tInt,
 4227 000e 0CBF     		ite	eq
 4228 0010 2146     		moveq	r1, r4	@ chScale, tmp153
 4229 0012 4FF48061 		movne	r1, #1024	@ chScale,
 4230              	.L338:
 4231              	@ main.c:2050:     if (!iGain) chScale = chScale << 4; // scale 1X to 16X
 4232 0016 00B9     		cbnz	r0, .L339	@ iGain,
 4233              	@ main.c:2050:     if (!iGain) chScale = chScale << 4; // scale 1X to 16X
 4234 0018 0901     		lsls	r1, r1, #4	@ chScale, chScale,
 4235              	.L339:
 4236              	@ main.c:2054:     channel1 = (ch1 * chScale) >> CH_SCALE;
 4237 001a 01FB03F3 		mul	r3, r1, r3	@ _4, chScale, ch1
 4238              	@ main.c:2053:     channel0 = (ch0 * chScale) >> CH_SCALE;
 4239 001e 01FB02F1 		mul	r1, r1, r2	@ tmp139, chScale, ch0
 4240              	@ main.c:2060:     if (channel0 != 0) ratio1 = (channel1 << (RATIO_SCALE+1)) / channel0;
 4241 0022 890A     		lsrs	r1, r1, #10	@ channel0, tmp139,
 4242              	@ main.c:2054:     channel1 = (ch1 * chScale) >> CH_SCALE;
 4243 0024 4FEA9320 		lsr	r0, r3, #10	@ channel1, _4,
 4244              	@ main.c:2060:     if (channel0 != 0) ratio1 = (channel1 << (RATIO_SCALE+1)) / channel0;
 4245 0028 18D0     		beq	.L340	@,
 4246              	@ main.c:2060:     if (channel0 != 0) ratio1 = (channel1 << (RATIO_SCALE+1)) / channel0;
 4247 002a 23F47F73 		bic	r3, r3, #1020	@ tmp140, _4,
 4248 002e 23F00303 		bic	r3, r3, #3	@ tmp140, tmp140,
 4249 0032 B3FBF1F3 		udiv	r3, r3, r1	@ ratio1, tmp140, channel0
 4250 0036 0133     		adds	r3, r3, #1	@ tmp144, ratio1,
 4251 0038 5B08     		lsrs	r3, r3, #1	@ prephitmp_18, tmp144,
 4252              	@ main.c:2068:     switch (iType)
 4253 003a ADB3     		cbz	r5, .L342	@ iType,
 4254 003c 012D     		cmp	r5, #1	@ iType,
 4255 003e 15D0     		beq	.L343	@,
 4256              	.L341:
 4257 0040 0022     		movs	r2, #0	@ _164,
 4258 0042 1346     		mov	r3, r2	@ _166, _164
 4259              	.L344:
 4260              	@ main.c:2111:     temp = (u32)((channel0 * b) - (channel1 * m));
 4261 0044 02FB01F1 		mul	r1, r2, r1	@ tmp148, _164, channel0
 4262 0048 03FB1011 		mls	r1, r3, r0, r1	@ temp, _166, channel1, tmp148
 4263 004c 21EAE171 		bic	r1, r1, r1, asr #31	@ temp, temp
 4264 0050 01F50051 		add	r1, r1, #8192	@ tmp150, temp,
 4265 0054 C1F38F30 		ubfx	r0, r1, #14, #16	@ <retval>, tmp150,,
 4266              	.L365:
 4267              	@ main.c:2123: 	}
 4268 0058 30BC     		pop	{r4, r5}	@
 4269 005a 7047     		bx	lr	@
 4270              	.L340:
 4271              	@ main.c:2068:     switch (iType)
 4272 005c FDB1     		cbz	r5, .L361	@ iType,
 4273 005e 012D     		cmp	r5, #1	@ iType,
 4274 0060 EED1     		bne	.L341	@,
 4275              	.L354:
ARM GAS  /tmp/ccDfNsWv.s 			page 76


 4276 0062 40F2AD13 		movw	r3, #429	@ _166,
 4277 0066 4FF40172 		mov	r2, #516	@ _164,
 4278 006a EBE7     		b	.L344	@
 4279              	.L343:
 4280              	@ main.c:2090:             if ((ratio >= 0) && (ratio <= K1C))
 4281 006c 432B     		cmp	r3, #67	@ prephitmp_18,
 4282 006e F8D9     		bls	.L354	@,
 4283              	@ main.c:2092:             else if (ratio <= K2C)
 4284 0070 852B     		cmp	r3, #133	@ prephitmp_18,
 4285 0072 34D9     		bls	.L355	@,
 4286              	@ main.c:2094:             else if (ratio <= K3C)
 4287 0074 C82B     		cmp	r3, #200	@ prephitmp_18,
 4288 0076 37DD     		ble	.L356	@,
 4289              	@ main.c:2096:             else if (ratio <= K4C)
 4290 0078 B3F5857F 		cmp	r3, #266	@ prephitmp_18,
 4291 007c 43DD     		ble	.L357	@,
 4292              	@ main.c:2098:             else if (ratio <= K5C)
 4293 007e B3F5A77F 		cmp	r3, #334	@ prephitmp_18,
 4294 0082 45DB     		blt	.L358	@,
 4295              	@ main.c:2100:             else if (ratio <= K6C)
 4296 0084 B3F5CD7F 		cmp	r3, #410	@ prephitmp_18,
 4297 0088 51DD     		ble	.L359	@,
 4298              	@ main.c:2102:             else if (ratio <= K7C)
 4299 008a 40F29A22 		movw	r2, #666	@ tmp146,
 4300 008e 9342     		cmp	r3, r2	@ prephitmp_18, tmp146
 4301 0090 4BDC     		bgt	.L360	@,
 4302 0092 2B23     		movs	r3, #43	@ _166,
 4303 0094 3722     		movs	r2, #55	@ _164,
 4304 0096 D5E7     		b	.L344	@
 4305              	.L337:
 4306              	@ main.c:2037:        chScale = CHSCALE_TINT0;
 4307 0098 47F21751 		movw	r1, #29975	@ chScale,
 4308 009c BBE7     		b	.L338	@
 4309              	.L361:
 4310              	@ main.c:2068:     switch (iType)
 4311 009e 4FF4DF73 		mov	r3, #446	@ _166,
 4312 00a2 4FF4F972 		mov	r2, #498	@ _164,
 4313 00a6 CDE7     		b	.L344	@
 4314              	.L342:
 4315              	@ main.c:2071:         if ((ratio >= 0) && (ratio <= K1T))
 4316 00a8 402B     		cmp	r3, #64	@ prephitmp_18,
 4317 00aa F8D9     		bls	.L361	@,
 4318              	@ main.c:2073:             else if (ratio <= K2T)
 4319 00ac 802B     		cmp	r3, #128	@ prephitmp_18,
 4320 00ae 11D9     		bls	.L348	@,
 4321              	@ main.c:2075:             else if (ratio <= K3T)
 4322 00b0 C02B     		cmp	r3, #192	@ prephitmp_18,
 4323 00b2 1EDD     		ble	.L349	@,
 4324              	@ main.c:2077:             else if (ratio <= K4T)
 4325 00b4 B3F5807F 		cmp	r3, #256	@ prephitmp_18,
 4326 00b8 20DD     		ble	.L350	@,
 4327              	@ main.c:2079:             else if (ratio <= K5T)
 4328 00ba B3F59C7F 		cmp	r3, #312	@ prephitmp_18,
 4329 00be 2CDD     		ble	.L351	@,
 4330              	@ main.c:2081:             else if (ratio <= K6T)
 4331 00c0 B3F5CD7F 		cmp	r3, #410	@ prephitmp_18,
 4332 00c4 2EDD     		ble	.L352	@,
ARM GAS  /tmp/ccDfNsWv.s 			page 77


 4333              	@ main.c:2083:             else if (ratio <= K7T)
 4334 00c6 40F29A22 		movw	r2, #666	@ tmp145,
 4335 00ca 9342     		cmp	r3, r2	@ prephitmp_18, tmp145
 4336 00cc 2DDC     		bgt	.L360	@,
 4337 00ce 1223     		movs	r3, #18	@ _166,
 4338 00d0 1822     		movs	r2, #24	@ _164,
 4339 00d2 B7E7     		b	.L344	@
 4340              	.L348:
 4341 00d4 40F2D123 		movw	r3, #721	@ _166,
 4342 00d8 4FF40572 		mov	r2, #532	@ _164,
 4343 00dc B2E7     		b	.L344	@
 4344              	.L355:
 4345 00de 40F2C123 		movw	r3, #705	@ _166,
 4346 00e2 4FF40A72 		mov	r2, #552	@ _164,
 4347 00e6 ADE7     		b	.L344	@
 4348              	.L356:
 4349 00e8 40F26333 		movw	r3, #867	@ _166,
 4350 00ec 40F25322 		movw	r2, #595	@ _164,
 4351 00f0 A8E7     		b	.L344	@
 4352              	.L349:
 4353 00f2 40F27B33 		movw	r3, #891	@ _166,
 4354 00f6 40F23F22 		movw	r2, #575	@ _164,
 4355 00fa A3E7     		b	.L344	@
 4356              	.L350:
 4357 00fc 40F2FE33 		movw	r3, #1022	@ _166,
 4358 0100 4FF41C72 		mov	r2, #624	@ _164,
 4359 0104 9EE7     		b	.L344	@
 4360              	.L357:
 4361 0106 40F2DF33 		movw	r3, #991	@ _166,
 4362 010a 40F28222 		movw	r2, #642	@ _164,
 4363 010e 99E7     		b	.L344	@
 4364              	.L358:
 4365 0110 40F2DD13 		movw	r3, #477	@ _166,
 4366 0114 40F27712 		movw	r2, #375	@ _164,
 4367 0118 94E7     		b	.L344	@
 4368              	.L351:
 4369 011a 4FF4FE73 		mov	r3, #508	@ _166,
 4370 011e 40F26F12 		movw	r2, #367	@ _164,
 4371 0122 8FE7     		b	.L344	@
 4372              	.L352:
 4373 0124 FB23     		movs	r3, #251	@ _166,
 4374 0126 D222     		movs	r2, #210	@ _164,
 4375 0128 8CE7     		b	.L344	@
 4376              	.L360:
 4377 012a 0020     		movs	r0, #0	@ <retval>,
 4378              	@ main.c:2122:     return(lux);
 4379 012c 94E7     		b	.L365	@
 4380              	.L359:
 4381 012e 40F22713 		movw	r3, #295	@ _166,
 4382 0132 40F20112 		movw	r2, #257	@ _164,
 4383 0136 85E7     		b	.L344	@
 4384              		.size	CalculateLux, .-CalculateLux
 4385              		.section	.text.TSL2561_i2c,"ax",%progbits
 4386              		.align	1
 4387              		.p2align 2,,3
 4388              		.global	TSL2561_i2c
 4389              		.syntax unified
ARM GAS  /tmp/ccDfNsWv.s 			page 78


 4390              		.thumb
 4391              		.thumb_func
 4392              		.fpu softvfp
 4393              		.type	TSL2561_i2c, %function
 4394              	TSL2561_i2c:
 4395              		@ args = 0, pretend = 0, frame = 8
