
out/ram.elf:     file format elf32-littlearm


Disassembly of section .text:

20000000 <vectors>:
20000000:	10 1d 00 20 31 01 00 20 a9 0f 00 20 a9 0f 00 20     ... 1.. ... ... 
20000010:	a9 0f 00 20 a9 0f 00 20 a9 0f 00 20 a9 0f 00 20     ... ... ... ... 
20000020:	a9 0f 00 20 a9 0f 00 20 a9 0f 00 20 a9 0f 00 20     ... ... ... ... 
20000030:	a9 0f 00 20 a9 0f 00 20 a9 0f 00 20 b9 0c 00 20     ... ... ... ... 
20000040:	a9 0f 00 20 a9 0f 00 20 a9 0f 00 20 e5 0e 00 20     ... ... ... ... 
20000050:	a9 0f 00 20 a9 0f 00 20 b5 0d 00 20 e5 0d 00 20     ... ... ... ... 
20000060:	0d 0e 00 20 35 0e 00 20 5d 0e 00 20 49 0f 00 20     ... 5.. ].. I.. 
20000070:	a9 0f 00 20 a9 0f 00 20 a9 0f 00 20 a9 0f 00 20     ... ... ... ... 
20000080:	a9 0f 00 20 a9 0f 00 20 a9 0f 00 20 a9 0f 00 20     ... ... ... ... 
20000090:	a9 0f 00 20 a9 0f 00 20 a9 0f 00 20 a5 0e 00 20     ... ... ... ... 
200000a0:	a9 0f 00 20 a9 0f 00 20 a9 0f 00 20 a9 0f 00 20     ... ... ... ... 
200000b0:	39 0d 00 20 59 0d 00 20 91 0f 00 20 a9 0f 00 20     9.. Y.. ... ... 
200000c0:	a9 0f 00 20 a9 0f 00 20 a9 0f 00 20 a9 0f 00 20     ... ... ... ... 
200000d0:	a9 0f 00 20 d5 15 00 20 19 16 00 20 a9 0f 00 20     ... ... ... ... 
200000e0:	85 0e 00 20 19 0f 00 20 a9 0f 00 20 a9 0f 00 20     ... ... ... ... 
200000f0:	a9 0f 00 20 a9 0f 00 20 a9 0f 00 20 a9 0f 00 20     ... ... ... ... 
20000100:	81 0f 00 20 a9 0f 00 20 a9 0f 00 20 a9 0f 00 20     ... ... ... ... 
20000110:	a9 0f 00 20 a9 0f 00 20 a9 0f 00 20 a9 0f 00 20     ... ... ... ... 
20000120:	a9 0f 00 20 a9 0f 00 20 a9 0f 00 20 a9 0f 00 20     ... ... ... ... 

20000130 <Reset_Handler>:
20000130:	4810      	ldr	r0, [pc, #64]	; (20000174 <__default_low_level_init+0x2>)
20000132:	f380 8809 	msr	PSP, r0
20000136:	2002      	movs	r0, #2
20000138:	f380 8814 	msr	CONTROL, r0
2000013c:	f3bf 8f6f 	isb	sy
20000140:	480d      	ldr	r0, [pc, #52]	; (20000178 <__default_low_level_init+0x6>)
20000142:	4780      	blx	r0
20000144:	490d      	ldr	r1, [pc, #52]	; (2000017c <__default_low_level_init+0xa>)
20000146:	4a0e      	ldr	r2, [pc, #56]	; (20000180 <__default_low_level_init+0xe>)
20000148:	4b0e      	ldr	r3, [pc, #56]	; (20000184 <__default_low_level_init+0x12>)
2000014a:	429a      	cmp	r2, r3
2000014c:	bf3e      	ittt	cc
2000014e:	f851 0b04 	ldrcc.w	r0, [r1], #4
20000152:	f842 0b04 	strcc.w	r0, [r2], #4
20000156:	e7f8      	bcc.n	2000014a <Reset_Handler+0x1a>
20000158:	2000      	movs	r0, #0
2000015a:	490b      	ldr	r1, [pc, #44]	; (20000188 <__default_low_level_init+0x16>)
2000015c:	4a0b      	ldr	r2, [pc, #44]	; (2000018c <__default_low_level_init+0x1a>)
2000015e:	4291      	cmp	r1, r2
20000160:	bf3c      	itt	cc
20000162:	f841 0b04 	strcc.w	r0, [r1], #4
20000166:	e7fa      	bcc.n	2000015e <Reset_Handler+0x2e>
20000168:	4809      	ldr	r0, [pc, #36]	; (20000190 <__default_low_level_init+0x1e>)
2000016a:	4780      	blx	r0
2000016c:	4809      	ldr	r0, [pc, #36]	; (20000194 <__default_low_level_init+0x22>)
2000016e:	4780      	blx	r0
20000170:	e7fe      	b.n	20000170 <Reset_Handler+0x40>

20000172 <__default_low_level_init>:
20000172:	4770      	bx	lr
20000174:	20002110 	.word	0x20002110
20000178:	20000173 	.word	0x20000173
2000017c:	20001a24 	.word	0x20001a24
20000180:	20001a24 	.word	0x20001a24
20000184:	20001a28 	.word	0x20001a28
20000188:	20001a28 	.word	0x20001a28
2000018c:	20001b0c 	.word	0x20001b0c
20000190:	20000173 	.word	0x20000173
20000194:	20000c21 	.word	0x20000c21

20000198 <lion_updown>:
20000198:	e92d 4ff0 	stmdb	sp!, {r4, r5, r6, r7, r8, r9, sl, fp, lr}
2000019c:	b09d      	sub	sp, #116	; 0x74
2000019e:	f001 fa5d 	bl	2000165c <BkpRegInit>
200001a2:	f242 022c 	movw	r2, #8236	; 0x202c
200001a6:	f240 2671 	movw	r6, #625	; 0x271
200001aa:	2520      	movs	r5, #32
200001ac:	f04f 0c40 	mov.w	ip, #64	; 0x40
200001b0:	f44f 779c 	mov.w	r7, #312	; 0x138
200001b4:	4bbe      	ldr	r3, [pc, #760]	; (200004b0 <lion_updown+0x318>)
200001b6:	f8df e374 	ldr.w	lr, [pc, #884]	; 2000052c <lion_updown+0x394>
200001ba:	6999      	ldr	r1, [r3, #24]
200001bc:	4cbd      	ldr	r4, [pc, #756]	; (200004b4 <lion_updown+0x31c>)
200001be:	f441 4180 	orr.w	r1, r1, #16384	; 0x4000
200001c2:	6199      	str	r1, [r3, #24]
200001c4:	f8de 1004 	ldr.w	r1, [lr, #4]
200001c8:	48bb      	ldr	r0, [pc, #748]	; (200004b8 <lion_updown+0x320>)
200001ca:	f421 617f 	bic.w	r1, r1, #4080	; 0xff0
200001ce:	f441 6192 	orr.w	r1, r1, #1168	; 0x490
200001d2:	f8ce 1004 	str.w	r1, [lr, #4]
200001d6:	89a1      	ldrh	r1, [r4, #12]
200001d8:	f8df 8354 	ldr.w	r8, [pc, #852]	; 20000530 <lion_updown+0x398>
200001dc:	4311      	orrs	r1, r2
200001de:	81a1      	strh	r1, [r4, #12]
200001e0:	8126      	strh	r6, [r4, #8]
200001e2:	6045      	str	r5, [r0, #4]
200001e4:	69d9      	ldr	r1, [r3, #28]
200001e6:	4eb5      	ldr	r6, [pc, #724]	; (200004bc <lion_updown+0x324>)
200001e8:	f441 3100 	orr.w	r1, r1, #131072	; 0x20000
200001ec:	61d9      	str	r1, [r3, #28]
200001ee:	f8de 1000 	ldr.w	r1, [lr]
200001f2:	4db3      	ldr	r5, [pc, #716]	; (200004c0 <lion_updown+0x328>)
200001f4:	f421 417f 	bic.w	r1, r1, #65280	; 0xff00
200001f8:	f441 4192 	orr.w	r1, r1, #18688	; 0x4900
200001fc:	f8ce 1000 	str.w	r1, [lr]
20000200:	f8b8 100c 	ldrh.w	r1, [r8, #12]
20000204:	f8df 932c 	ldr.w	r9, [pc, #812]	; 20000534 <lion_updown+0x39c>
20000208:	4311      	orrs	r1, r2
2000020a:	f8a8 100c 	strh.w	r1, [r8, #12]
2000020e:	f8a8 7008 	strh.w	r7, [r8, #8]
20000212:	f8c0 c004 	str.w	ip, [r0, #4]
20000216:	69d9      	ldr	r1, [r3, #28]
20000218:	2003      	movs	r0, #3
2000021a:	f441 2180 	orr.w	r1, r1, #262144	; 0x40000
2000021e:	61d9      	str	r1, [r3, #28]
20000220:	6873      	ldr	r3, [r6, #4]
20000222:	f8df 8314 	ldr.w	r8, [pc, #788]	; 20000538 <lion_updown+0x3a0>
20000226:	f423 437f 	bic.w	r3, r3, #65280	; 0xff00
2000022a:	f443 4392 	orr.w	r3, r3, #18688	; 0x4900
2000022e:	6073      	str	r3, [r6, #4]
20000230:	89ab      	ldrh	r3, [r5, #12]
20000232:	f8df a308 	ldr.w	sl, [pc, #776]	; 2000053c <lion_updown+0x3a4>
20000236:	431a      	orrs	r2, r3
20000238:	81aa      	strh	r2, [r5, #12]
2000023a:	4ba2      	ldr	r3, [pc, #648]	; (200004c4 <lion_updown+0x32c>)
2000023c:	4aa2      	ldr	r2, [pc, #648]	; (200004c8 <lion_updown+0x330>)
2000023e:	812f      	strh	r7, [r5, #8]
20000240:	601a      	str	r2, [r3, #0]
20000242:	f000 feb7 	bl	20000fb4 <tr_pen_color>
20000246:	48a1      	ldr	r0, [pc, #644]	; (200004cc <lion_updown+0x334>)
20000248:	f000 ff10 	bl	2000106c <UaPutS>
2000024c:	8923      	ldrh	r3, [r4, #8]
2000024e:	48a0      	ldr	r0, [pc, #640]	; (200004d0 <lion_updown+0x338>)
20000250:	3b01      	subs	r3, #1
20000252:	fbb0 f0f3 	udiv	r0, r0, r3
20000256:	a908      	add	r1, sp, #32
20000258:	4f9e      	ldr	r7, [pc, #632]	; (200004d4 <lion_updown+0x33c>)
2000025a:	f000 ff57 	bl	2000110c <uint2str>
2000025e:	f000 ff05 	bl	2000106c <UaPutS>
20000262:	f107 0544 	add.w	r5, r7, #68	; 0x44
20000266:	489c      	ldr	r0, [pc, #624]	; (200004d8 <lion_updown+0x340>)
20000268:	ac0e      	add	r4, sp, #56	; 0x38
2000026a:	f000 feff 	bl	2000106c <UaPutS>
2000026e:	cd0f      	ldmia	r5!, {r0, r1, r2, r3}
20000270:	c40f      	stmia	r4!, {r0, r1, r2, r3}
20000272:	cd0f      	ldmia	r5!, {r0, r1, r2, r3}
20000274:	c40f      	stmia	r4!, {r0, r1, r2, r3}
20000276:	cd0f      	ldmia	r5!, {r0, r1, r2, r3}
20000278:	c40f      	stmia	r4!, {r0, r1, r2, r3}
2000027a:	e895 0003 	ldmia.w	r5, {r0, r1}
2000027e:	6c3b      	ldr	r3, [r7, #64]	; 0x40
20000280:	2502      	movs	r5, #2
20000282:	0c1a      	lsrs	r2, r3, #16
20000284:	f8ad 3014 	strh.w	r3, [sp, #20]
20000288:	f8ad 3018 	strh.w	r3, [sp, #24]
2000028c:	f88d 2016 	strb.w	r2, [sp, #22]
20000290:	f88d 201a 	strb.w	r2, [sp, #26]
20000294:	e884 0003 	stmia.w	r4, {r0, r1}
20000298:	f001 f9ee 	bl	20001678 <i2c1r_init>
2000029c:	a905      	add	r1, sp, #20
2000029e:	2203      	movs	r2, #3
200002a0:	2080      	movs	r0, #128	; 0x80
200002a2:	f001 fa17 	bl	200016d4 <i2c1_write>
200002a6:	f640 7405 	movw	r4, #3845	; 0xf05
200002aa:	23db      	movs	r3, #219	; 0xdb
200002ac:	2203      	movs	r2, #3
200002ae:	a904      	add	r1, sp, #16
200002b0:	2080      	movs	r0, #128	; 0x80
200002b2:	f8ad 4010 	strh.w	r4, [sp, #16]
200002b6:	f88d 3012 	strb.w	r3, [sp, #18]
200002ba:	f001 fa0b 	bl	200016d4 <i2c1_write>
200002be:	aa03      	add	r2, sp, #12
200002c0:	2302      	movs	r3, #2
200002c2:	2100      	movs	r1, #0
200002c4:	2080      	movs	r0, #128	; 0x80
200002c6:	f001 fa3f 	bl	20001748 <i2c1_read>
200002ca:	2200      	movs	r2, #0
200002cc:	f04f 0e01 	mov.w	lr, #1
200002d0:	6877      	ldr	r7, [r6, #4]
200002d2:	4982      	ldr	r1, [pc, #520]	; (200004dc <lion_updown+0x344>)
200002d4:	f027 677f 	bic.w	r7, r7, #267386880	; 0xff00000
200002d8:	f427 2770 	bic.w	r7, r7, #983040	; 0xf0000
200002dc:	f047 67aa 	orr.w	r7, r7, #89128960	; 0x5500000
200002e0:	f447 27a0 	orr.w	r7, r7, #327680	; 0x50000
200002e4:	9201      	str	r2, [sp, #4]
200002e6:	6077      	str	r7, [r6, #4]
200002e8:	890f      	ldrh	r7, [r1, #8]
200002ea:	888e      	ldrh	r6, [r1, #4]
200002ec:	487c      	ldr	r0, [pc, #496]	; (200004e0 <lion_updown+0x348>)
200002ee:	eb06 4607 	add.w	r6, r6, r7, lsl #16
200002f2:	8a0f      	ldrh	r7, [r1, #16]
200002f4:	8989      	ldrh	r1, [r1, #12]
200002f6:	f8c9 6000 	str.w	r6, [r9]
200002fa:	eb01 4107 	add.w	r1, r1, r7, lsl #16
200002fe:	f8df c20c 	ldr.w	ip, [pc, #524]	; 2000050c <lion_updown+0x374>
20000302:	4e78      	ldr	r6, [pc, #480]	; (200004e4 <lion_updown+0x34c>)
20000304:	4f78      	ldr	r7, [pc, #480]	; (200004e8 <lion_updown+0x350>)
20000306:	4b79      	ldr	r3, [pc, #484]	; (200004ec <lion_updown+0x354>)
20000308:	6039      	str	r1, [r7, #0]
2000030a:	f8cc 2000 	str.w	r2, [ip]
2000030e:	6002      	str	r2, [r0, #0]
20000310:	f8c6 e000 	str.w	lr, [r6]
20000314:	689a      	ldr	r2, [r3, #8]
20000316:	4976      	ldr	r1, [pc, #472]	; (200004f0 <lion_updown+0x358>)
20000318:	461c      	mov	r4, r3
2000031a:	600a      	str	r2, [r1, #0]
2000031c:	689b      	ldr	r3, [r3, #8]
2000031e:	4a75      	ldr	r2, [pc, #468]	; (200004f4 <lion_updown+0x35c>)
20000320:	6013      	str	r3, [r2, #0]
20000322:	4b74      	ldr	r3, [pc, #464]	; (200004f4 <lion_updown+0x35c>)
20000324:	681b      	ldr	r3, [r3, #0]
20000326:	68a2      	ldr	r2, [r4, #8]
20000328:	1a9b      	subs	r3, r3, r2
2000032a:	4a73      	ldr	r2, [pc, #460]	; (200004f8 <lion_updown+0x360>)
2000032c:	4293      	cmp	r3, r2
2000032e:	f200 824f 	bhi.w	200007d0 <lion_updown+0x638>
20000332:	4b6f      	ldr	r3, [pc, #444]	; (200004f0 <lion_updown+0x358>)
20000334:	4a71      	ldr	r2, [pc, #452]	; (200004fc <lion_updown+0x364>)
20000336:	461f      	mov	r7, r3
20000338:	681b      	ldr	r3, [r3, #0]
2000033a:	68a1      	ldr	r1, [r4, #8]
2000033c:	1a5b      	subs	r3, r3, r1
2000033e:	4293      	cmp	r3, r2
20000340:	d947      	bls.n	200003d2 <lion_updown+0x23a>
20000342:	4a6f      	ldr	r2, [pc, #444]	; (20000500 <lion_updown+0x368>)
20000344:	f04f 0b46 	mov.w	fp, #70	; 0x46
20000348:	8813      	ldrh	r3, [r2, #0]
2000034a:	4a6e      	ldr	r2, [pc, #440]	; (20000504 <lion_updown+0x36c>)
2000034c:	f240 7ece 	movw	lr, #1998	; 0x7ce
20000350:	f9b2 c000 	ldrsh.w	ip, [r2]
20000354:	4a6c      	ldr	r2, [pc, #432]	; (20000508 <lion_updown+0x370>)
20000356:	f203 31e7 	addw	r1, r3, #999	; 0x3e7
2000035a:	8810      	ldrh	r0, [r2, #0]
2000035c:	f46f 62fa 	mvn.w	r2, #2000	; 0x7d0
20000360:	b289      	uxth	r1, r1
20000362:	fb0b f000 	mul.w	r0, fp, r0
20000366:	f8d4 b008 	ldr.w	fp, [r4, #8]
2000036a:	4462      	add	r2, ip
2000036c:	4571      	cmp	r1, lr
2000036e:	b292      	uxth	r2, r2
20000370:	f8c7 b000 	str.w	fp, [r7]
20000374:	f200 81cb 	bhi.w	2000070e <lion_updown+0x576>
20000378:	f241 0168 	movw	r1, #4200	; 0x1068
2000037c:	458c      	cmp	ip, r1
2000037e:	f340 81c6 	ble.w	2000070e <lion_updown+0x576>
20000382:	2d00      	cmp	r5, #0
20000384:	f040 81c3 	bne.w	2000070e <lion_updown+0x576>
20000388:	2101      	movs	r1, #1
2000038a:	f240 2e56 	movw	lr, #598	; 0x256
2000038e:	4e54      	ldr	r6, [pc, #336]	; (200004e0 <lion_updown+0x348>)
20000390:	f8df b178 	ldr.w	fp, [pc, #376]	; 2000050c <lion_updown+0x374>
20000394:	4572      	cmp	r2, lr
20000396:	f8cb 5000 	str.w	r5, [fp]
2000039a:	6031      	str	r1, [r6, #0]
2000039c:	4e52      	ldr	r6, [pc, #328]	; (200004e8 <lion_updown+0x350>)
2000039e:	f8c9 5000 	str.w	r5, [r9]
200003a2:	6035      	str	r5, [r6, #0]
200003a4:	f240 835f 	bls.w	20000a66 <lion_updown+0x8ce>
200003a8:	f8d8 2000 	ldr.w	r2, [r8]
200003ac:	460d      	mov	r5, r1
200003ae:	4282      	cmp	r2, r0
200003b0:	d80f      	bhi.n	200003d2 <lion_updown+0x23a>
200003b2:	3363      	adds	r3, #99	; 0x63
200003b4:	b29b      	uxth	r3, r3
200003b6:	2bc6      	cmp	r3, #198	; 0xc6
200003b8:	d80b      	bhi.n	200003d2 <lion_updown+0x23a>
200003ba:	f241 0368 	movw	r3, #4200	; 0x1068
200003be:	459c      	cmp	ip, r3
200003c0:	dd07      	ble.n	200003d2 <lion_updown+0x23a>
200003c2:	2d06      	cmp	r5, #6
200003c4:	d105      	bne.n	200003d2 <lion_updown+0x23a>
200003c6:	2300      	movs	r3, #0
200003c8:	2502      	movs	r5, #2
200003ca:	4a50      	ldr	r2, [pc, #320]	; (2000050c <lion_updown+0x374>)
200003cc:	6013      	str	r3, [r2, #0]
200003ce:	f842 3c04 	str.w	r3, [r2, #-4]
200003d2:	484f      	ldr	r0, [pc, #316]	; (20000510 <lion_updown+0x378>)
200003d4:	4a4f      	ldr	r2, [pc, #316]	; (20000514 <lion_updown+0x37c>)
200003d6:	6803      	ldr	r3, [r0, #0]
200003d8:	68a1      	ldr	r1, [r4, #8]
200003da:	1a5b      	subs	r3, r3, r1
200003dc:	4293      	cmp	r3, r2
200003de:	d905      	bls.n	200003ec <lion_updown+0x254>
200003e0:	68a3      	ldr	r3, [r4, #8]
200003e2:	6003      	str	r3, [r0, #0]
200003e4:	9b01      	ldr	r3, [sp, #4]
200003e6:	2b00      	cmp	r3, #0
200003e8:	f040 82ea 	bne.w	200009c0 <lion_updown+0x828>
200003ec:	484a      	ldr	r0, [pc, #296]	; (20000518 <lion_updown+0x380>)
200003ee:	4a4b      	ldr	r2, [pc, #300]	; (2000051c <lion_updown+0x384>)
200003f0:	6803      	ldr	r3, [r0, #0]
200003f2:	68a1      	ldr	r1, [r4, #8]
200003f4:	1a5b      	subs	r3, r3, r1
200003f6:	4293      	cmp	r3, r2
200003f8:	d906      	bls.n	20000408 <lion_updown+0x270>
200003fa:	68a3      	ldr	r3, [r4, #8]
200003fc:	4a48      	ldr	r2, [pc, #288]	; (20000520 <lion_updown+0x388>)
200003fe:	6003      	str	r3, [r0, #0]
20000400:	6813      	ldr	r3, [r2, #0]
20000402:	f083 0301 	eor.w	r3, r3, #1
20000406:	6013      	str	r3, [r2, #0]
20000408:	f8da 3000 	ldr.w	r3, [sl]
2000040c:	889b      	ldrh	r3, [r3, #4]
2000040e:	b29b      	uxth	r3, r3
20000410:	2b00      	cmp	r3, #0
20000412:	d086      	beq.n	20000322 <lion_updown+0x18a>
20000414:	f10d 000b 	add.w	r0, sp, #11
20000418:	f000 fe36 	bl	20001088 <UART_getChar>
2000041c:	f89d 300b 	ldrb.w	r3, [sp, #11]
20000420:	3b61      	subs	r3, #97	; 0x61
20000422:	2b19      	cmp	r3, #25
20000424:	f63f af7d 	bhi.w	20000322 <lion_updown+0x18a>
20000428:	a201      	add	r2, pc, #4	; (adr r2, 20000430 <lion_updown+0x298>)
2000042a:	f852 f023 	ldr.w	pc, [r2, r3, lsl #2]
2000042e:	bf00      	nop
20000430:	200006f9 	.word	0x200006f9
20000434:	200006ed 	.word	0x200006ed
20000438:	20000323 	.word	0x20000323
2000043c:	200006d9 	.word	0x200006d9
20000440:	20000323 	.word	0x20000323
20000444:	20000323 	.word	0x20000323
20000448:	20000323 	.word	0x20000323
2000044c:	20000323 	.word	0x20000323
20000450:	20000323 	.word	0x20000323
20000454:	20000323 	.word	0x20000323
20000458:	2000064b 	.word	0x2000064b
2000045c:	2000063b 	.word	0x2000063b
20000460:	200005fd 	.word	0x200005fd
20000464:	20000323 	.word	0x20000323
20000468:	20000323 	.word	0x20000323
2000046c:	20000323 	.word	0x20000323
20000470:	200005e9 	.word	0x200005e9
20000474:	20000323 	.word	0x20000323
20000478:	20000323 	.word	0x20000323
2000047c:	20000551 	.word	0x20000551
20000480:	20000323 	.word	0x20000323
20000484:	20000541 	.word	0x20000541
20000488:	20000323 	.word	0x20000323
2000048c:	20000323 	.word	0x20000323
20000490:	20000323 	.word	0x20000323
20000494:	20000499 	.word	0x20000499
20000498:	2300      	movs	r3, #0
2000049a:	4a13      	ldr	r2, [pc, #76]	; (200004e8 <lion_updown+0x350>)
2000049c:	f8c9 3000 	str.w	r3, [r9]
200004a0:	6013      	str	r3, [r2, #0]
200004a2:	4a20      	ldr	r2, [pc, #128]	; (20000524 <lion_updown+0x38c>)
200004a4:	8013      	strh	r3, [r2, #0]
200004a6:	4a20      	ldr	r2, [pc, #128]	; (20000528 <lion_updown+0x390>)
200004a8:	e9c2 3300 	strd	r3, r3, [r2]
200004ac:	e739      	b.n	20000322 <lion_updown+0x18a>
200004ae:	bf00      	nop
200004b0:	40021000 	.word	0x40021000
200004b4:	40013800 	.word	0x40013800
200004b8:	e000e100 	.word	0xe000e100
200004bc:	40010c00 	.word	0x40010c00
200004c0:	40004800 	.word	0x40004800
200004c4:	20001af0 	.word	0x20001af0
200004c8:	20001021 	.word	0x20001021
200004cc:	200018bc 	.word	0x200018bc
200004d0:	044aa200 	.word	0x044aa200
200004d4:	20001840 	.word	0x20001840
200004d8:	20001a18 	.word	0x20001a18
200004dc:	40006c00 	.word	0x40006c00
200004e0:	422181b0 	.word	0x422181b0
200004e4:	422181b8 	.word	0x422181b8
200004e8:	20001a4c 	.word	0x20001a4c
200004ec:	e000e010 	.word	0xe000e010
200004f0:	20001ae8 	.word	0x20001ae8
200004f4:	20001aa0 	.word	0x20001aa0
200004f8:	00895440 	.word	0x00895440
200004fc:	0112a880 	.word	0x0112a880
20000500:	20001a4a 	.word	0x20001a4a
20000504:	20001a54 	.word	0x20001a54
20000508:	20001a56 	.word	0x20001a56
2000050c:	422181b4 	.word	0x422181b4
20000510:	20001b08 	.word	0x20001b08
20000514:	0044aa20 	.word	0x0044aa20
20000518:	20001a9c 	.word	0x20001a9c
2000051c:	000dbba0 	.word	0x000dbba0
20000520:	422201b4 	.word	0x422201b4
20000524:	20001a40 	.word	0x20001a40
20000528:	20001a34 	.word	0x20001a34
2000052c:	40010800 	.word	0x40010800
20000530:	40004400 	.word	0x40004400
20000534:	20001a3c 	.word	0x20001a3c
20000538:	20001a28 	.word	0x20001a28
2000053c:	20001a24 	.word	0x20001a24
20000540:	2101      	movs	r1, #1
20000542:	2300      	movs	r3, #0
20000544:	4a8c      	ldr	r2, [pc, #560]	; (20000778 <lion_updown+0x5e0>)
20000546:	2503      	movs	r5, #3
20000548:	6011      	str	r1, [r2, #0]
2000054a:	f842 3c04 	str.w	r3, [r2, #-4]
2000054e:	e6e8      	b.n	20000322 <lion_updown+0x18a>
20000550:	488a      	ldr	r0, [pc, #552]	; (2000077c <lion_updown+0x5e4>)
20000552:	f000 fd8b 	bl	2000106c <UaPutS>
20000556:	2101      	movs	r1, #1
20000558:	2004      	movs	r0, #4
2000055a:	f000 fd41 	bl	20000fe0 <tr_locate>
2000055e:	4888      	ldr	r0, [pc, #544]	; (20000780 <lion_updown+0x5e8>)
20000560:	f000 fd84 	bl	2000106c <UaPutS>
20000564:	2101      	movs	r1, #1
20000566:	2005      	movs	r0, #5
20000568:	f000 fd3a 	bl	20000fe0 <tr_locate>
2000056c:	4885      	ldr	r0, [pc, #532]	; (20000784 <lion_updown+0x5ec>)
2000056e:	f000 fd7d 	bl	2000106c <UaPutS>
20000572:	2114      	movs	r1, #20
20000574:	200a      	movs	r0, #10
20000576:	f000 fd33 	bl	20000fe0 <tr_locate>
2000057a:	4883      	ldr	r0, [pc, #524]	; (20000788 <lion_updown+0x5f0>)
2000057c:	f000 fd76 	bl	2000106c <UaPutS>
20000580:	2125      	movs	r1, #37	; 0x25
20000582:	200a      	movs	r0, #10
20000584:	f000 fd2c 	bl	20000fe0 <tr_locate>
20000588:	487c      	ldr	r0, [pc, #496]	; (2000077c <lion_updown+0x5e4>)
2000058a:	f000 fd6f 	bl	2000106c <UaPutS>
2000058e:	487f      	ldr	r0, [pc, #508]	; (2000078c <lion_updown+0x5f4>)
20000590:	f000 ff88 	bl	200014a4 <UART_getDec>
20000594:	4e7e      	ldr	r6, [pc, #504]	; (20000790 <lion_updown+0x5f8>)
20000596:	2114      	movs	r1, #20
20000598:	6030      	str	r0, [r6, #0]
2000059a:	200b      	movs	r0, #11
2000059c:	f000 fd20 	bl	20000fe0 <tr_locate>
200005a0:	487c      	ldr	r0, [pc, #496]	; (20000794 <lion_updown+0x5fc>)
200005a2:	f000 fd63 	bl	2000106c <UaPutS>
200005a6:	487c      	ldr	r0, [pc, #496]	; (20000798 <lion_updown+0x600>)
200005a8:	f000 fd60 	bl	2000106c <UaPutS>
200005ac:	4b77      	ldr	r3, [pc, #476]	; (2000078c <lion_updown+0x5f4>)
200005ae:	6818      	ldr	r0, [r3, #0]
200005b0:	f000 ffa8 	bl	20001504 <sint2uart>
200005b4:	6830      	ldr	r0, [r6, #0]
200005b6:	3801      	subs	r0, #1
200005b8:	f000 ffa4 	bl	20001504 <sint2uart>
200005bc:	2114      	movs	r1, #20
200005be:	200c      	movs	r0, #12
200005c0:	f000 fd0e 	bl	20000fe0 <tr_locate>
200005c4:	4875      	ldr	r0, [pc, #468]	; (2000079c <lion_updown+0x604>)
200005c6:	f000 fd51 	bl	2000106c <UaPutS>
200005ca:	2125      	movs	r1, #37	; 0x25
200005cc:	200c      	movs	r0, #12
200005ce:	f000 fd07 	bl	20000fe0 <tr_locate>
200005d2:	486a      	ldr	r0, [pc, #424]	; (2000077c <lion_updown+0x5e4>)
200005d4:	f000 fd4a 	bl	2000106c <UaPutS>
200005d8:	a80b      	add	r0, sp, #44	; 0x2c
200005da:	f000 fd6d 	bl	200010b8 <UART_getStr>
200005de:	2102      	movs	r1, #2
200005e0:	4608      	mov	r0, r1
200005e2:	f000 fcfd 	bl	20000fe0 <tr_locate>
200005e6:	e69c      	b.n	20000322 <lion_updown+0x18a>
200005e8:	2300      	movs	r3, #0
200005ea:	2101      	movs	r1, #1
200005ec:	4862      	ldr	r0, [pc, #392]	; (20000778 <lion_updown+0x5e0>)
200005ee:	4a6c      	ldr	r2, [pc, #432]	; (200007a0 <lion_updown+0x608>)
200005f0:	6003      	str	r3, [r0, #0]
200005f2:	2502      	movs	r5, #2
200005f4:	f840 3c04 	str.w	r3, [r0, #-4]
200005f8:	6011      	str	r1, [r2, #0]
200005fa:	e692      	b.n	20000322 <lion_updown+0x18a>
200005fc:	485f      	ldr	r0, [pc, #380]	; (2000077c <lion_updown+0x5e4>)
200005fe:	f000 fd35 	bl	2000106c <UaPutS>
20000602:	4868      	ldr	r0, [pc, #416]	; (200007a4 <lion_updown+0x60c>)
20000604:	f000 fd32 	bl	2000106c <UaPutS>
20000608:	4860      	ldr	r0, [pc, #384]	; (2000078c <lion_updown+0x5f4>)
2000060a:	f000 ff4b 	bl	200014a4 <UART_getDec>
2000060e:	4b60      	ldr	r3, [pc, #384]	; (20000790 <lion_updown+0x5f8>)
20000610:	2102      	movs	r1, #2
20000612:	461e      	mov	r6, r3
20000614:	6018      	str	r0, [r3, #0]
20000616:	2003      	movs	r0, #3
20000618:	f000 fce2 	bl	20000fe0 <tr_locate>
2000061c:	4862      	ldr	r0, [pc, #392]	; (200007a8 <lion_updown+0x610>)
2000061e:	f000 fd25 	bl	2000106c <UaPutS>
20000622:	6830      	ldr	r0, [r6, #0]
20000624:	f000 ff6e 	bl	20001504 <sint2uart>
20000628:	4b58      	ldr	r3, [pc, #352]	; (2000078c <lion_updown+0x5f4>)
2000062a:	6818      	ldr	r0, [r3, #0]
2000062c:	f000 ff6a 	bl	20001504 <sint2uart>
20000630:	2101      	movs	r1, #1
20000632:	2002      	movs	r0, #2
20000634:	f000 fcd4 	bl	20000fe0 <tr_locate>
20000638:	e673      	b.n	20000322 <lion_updown+0x18a>
2000063a:	2101      	movs	r1, #1
2000063c:	2300      	movs	r3, #0
2000063e:	4a4e      	ldr	r2, [pc, #312]	; (20000778 <lion_updown+0x5e0>)
20000640:	2506      	movs	r5, #6
20000642:	6011      	str	r1, [r2, #0]
20000644:	f842 3c04 	str.w	r3, [r2, #-4]
20000648:	e66b      	b.n	20000322 <lion_updown+0x18a>
2000064a:	484c      	ldr	r0, [pc, #304]	; (2000077c <lion_updown+0x5e4>)
2000064c:	f000 fd0e 	bl	2000106c <UaPutS>
20000650:	2201      	movs	r2, #1
20000652:	4b53      	ldr	r3, [pc, #332]	; (200007a0 <lion_updown+0x608>)
20000654:	4d55      	ldr	r5, [pc, #340]	; (200007ac <lion_updown+0x614>)
20000656:	601a      	str	r2, [r3, #0]
20000658:	4855      	ldr	r0, [pc, #340]	; (200007b0 <lion_updown+0x618>)
2000065a:	f000 fd07 	bl	2000106c <UaPutS>
2000065e:	8828      	ldrh	r0, [r5, #0]
20000660:	f000 ff50 	bl	20001504 <sint2uart>
20000664:	4853      	ldr	r0, [pc, #332]	; (200007b4 <lion_updown+0x61c>)
20000666:	f000 fd01 	bl	2000106c <UaPutS>
2000066a:	4848      	ldr	r0, [pc, #288]	; (2000078c <lion_updown+0x5f4>)
2000066c:	f000 ff1a 	bl	200014a4 <UART_getDec>
20000670:	4b47      	ldr	r3, [pc, #284]	; (20000790 <lion_updown+0x5f8>)
20000672:	2801      	cmp	r0, #1
20000674:	6018      	str	r0, [r3, #0]
20000676:	dd02      	ble.n	2000067e <lion_updown+0x4e6>
20000678:	4b44      	ldr	r3, [pc, #272]	; (2000078c <lion_updown+0x5f4>)
2000067a:	681b      	ldr	r3, [r3, #0]
2000067c:	802b      	strh	r3, [r5, #0]
2000067e:	484e      	ldr	r0, [pc, #312]	; (200007b8 <lion_updown+0x620>)
20000680:	f000 fcf4 	bl	2000106c <UaPutS>
20000684:	a807      	add	r0, sp, #28
20000686:	f000 fd17 	bl	200010b8 <UART_getStr>
2000068a:	2000      	movs	r0, #0
2000068c:	f000 ff3a 	bl	20001504 <sint2uart>
20000690:	2101      	movs	r1, #1
20000692:	2003      	movs	r0, #3
20000694:	f000 fca4 	bl	20000fe0 <tr_locate>
20000698:	4848      	ldr	r0, [pc, #288]	; (200007bc <lion_updown+0x624>)
2000069a:	f000 fce7 	bl	2000106c <UaPutS>
2000069e:	4b43      	ldr	r3, [pc, #268]	; (200007ac <lion_updown+0x614>)
200006a0:	4847      	ldr	r0, [pc, #284]	; (200007c0 <lion_updown+0x628>)
200006a2:	881b      	ldrh	r3, [r3, #0]
200006a4:	ebc3 03c3 	rsb	r3, r3, r3, lsl #3
200006a8:	fba0 3003 	umull	r3, r0, r0, r3
200006ac:	08c0      	lsrs	r0, r0, #3
200006ae:	f000 ff29 	bl	20001504 <sint2uart>
200006b2:	2101      	movs	r1, #1
200006b4:	2002      	movs	r0, #2
200006b6:	f000 fc93 	bl	20000fe0 <tr_locate>
200006ba:	f89d 301c 	ldrb.w	r3, [sp, #28]
200006be:	2b74      	cmp	r3, #116	; 0x74
200006c0:	f04f 0300 	mov.w	r3, #0
200006c4:	f000 8291 	beq.w	20000bea <lion_updown+0xa52>
200006c8:	2101      	movs	r1, #1
200006ca:	4a2b      	ldr	r2, [pc, #172]	; (20000778 <lion_updown+0x5e0>)
200006cc:	483d      	ldr	r0, [pc, #244]	; (200007c4 <lion_updown+0x62c>)
200006ce:	2504      	movs	r5, #4
200006d0:	6003      	str	r3, [r0, #0]
200006d2:	9301      	str	r3, [sp, #4]
200006d4:	6011      	str	r1, [r2, #0]
200006d6:	e624      	b.n	20000322 <lion_updown+0x18a>
200006d8:	2300      	movs	r3, #0
200006da:	2501      	movs	r5, #1
200006dc:	4926      	ldr	r1, [pc, #152]	; (20000778 <lion_updown+0x5e0>)
200006de:	4a30      	ldr	r2, [pc, #192]	; (200007a0 <lion_updown+0x608>)
200006e0:	600b      	str	r3, [r1, #0]
200006e2:	9301      	str	r3, [sp, #4]
200006e4:	4b37      	ldr	r3, [pc, #220]	; (200007c4 <lion_updown+0x62c>)
200006e6:	601d      	str	r5, [r3, #0]
200006e8:	6015      	str	r5, [r2, #0]
200006ea:	e61a      	b.n	20000322 <lion_updown+0x18a>
200006ec:	2201      	movs	r2, #1
200006ee:	2100      	movs	r1, #0
200006f0:	4b2b      	ldr	r3, [pc, #172]	; (200007a0 <lion_updown+0x608>)
200006f2:	9101      	str	r1, [sp, #4]
200006f4:	601a      	str	r2, [r3, #0]
200006f6:	e614      	b.n	20000322 <lion_updown+0x18a>
200006f8:	2200      	movs	r2, #0
200006fa:	2301      	movs	r3, #1
200006fc:	481e      	ldr	r0, [pc, #120]	; (20000778 <lion_updown+0x5e0>)
200006fe:	4928      	ldr	r1, [pc, #160]	; (200007a0 <lion_updown+0x608>)
20000700:	4e30      	ldr	r6, [pc, #192]	; (200007c4 <lion_updown+0x62c>)
20000702:	4615      	mov	r5, r2
20000704:	6032      	str	r2, [r6, #0]
20000706:	9201      	str	r2, [sp, #4]
20000708:	6003      	str	r3, [r0, #0]
2000070a:	600b      	str	r3, [r1, #0]
2000070c:	e609      	b.n	20000322 <lion_updown+0x18a>
2000070e:	f240 2156 	movw	r1, #598	; 0x256
20000712:	428a      	cmp	r2, r1
20000714:	d802      	bhi.n	2000071c <lion_updown+0x584>
20000716:	2d01      	cmp	r5, #1
20000718:	f000 81a5 	beq.w	20000a66 <lion_updown+0x8ce>
2000071c:	f103 0131 	add.w	r1, r3, #49	; 0x31
20000720:	b289      	uxth	r1, r1
20000722:	2962      	cmp	r1, #98	; 0x62
20000724:	d806      	bhi.n	20000734 <lion_updown+0x59c>
20000726:	f241 0167 	movw	r1, #4199	; 0x1067
2000072a:	458c      	cmp	ip, r1
2000072c:	dc02      	bgt.n	20000734 <lion_updown+0x59c>
2000072e:	2d00      	cmp	r5, #0
20000730:	f000 81a7 	beq.w	20000a82 <lion_updown+0x8ea>
20000734:	f240 311e 	movw	r1, #798	; 0x31e
20000738:	428a      	cmp	r2, r1
2000073a:	f240 8149 	bls.w	200009d0 <lion_updown+0x838>
2000073e:	f8d8 2000 	ldr.w	r2, [r8]
20000742:	4282      	cmp	r2, r0
20000744:	d804      	bhi.n	20000750 <lion_updown+0x5b8>
20000746:	f241 0268 	movw	r2, #4200	; 0x1068
2000074a:	4594      	cmp	ip, r2
2000074c:	f77f ae41 	ble.w	200003d2 <lion_updown+0x23a>
20000750:	2d04      	cmp	r5, #4
20000752:	f47f ae2e 	bne.w	200003b2 <lion_updown+0x21a>
20000756:	2300      	movs	r3, #0
20000758:	4907      	ldr	r1, [pc, #28]	; (20000778 <lion_updown+0x5e0>)
2000075a:	4a1b      	ldr	r2, [pc, #108]	; (200007c8 <lion_updown+0x630>)
2000075c:	600b      	str	r3, [r1, #0]
2000075e:	f841 3c04 	str.w	r3, [r1, #-4]
20000762:	4b1a      	ldr	r3, [pc, #104]	; (200007cc <lion_updown+0x634>)
20000764:	681b      	ldr	r3, [r3, #0]
20000766:	68a1      	ldr	r1, [r4, #8]
20000768:	1a5b      	subs	r3, r3, r1
2000076a:	4293      	cmp	r3, r2
2000076c:	f200 8124 	bhi.w	200009b8 <lion_updown+0x820>
20000770:	2301      	movs	r3, #1
20000772:	2502      	movs	r5, #2
20000774:	9301      	str	r3, [sp, #4]
20000776:	e639      	b.n	200003ec <lion_updown+0x254>
20000778:	422181b4 	.word	0x422181b4
2000077c:	200018e8 	.word	0x200018e8
20000780:	200018ec 	.word	0x200018ec
20000784:	20001920 	.word	0x20001920
20000788:	20001960 	.word	0x20001960
2000078c:	20001a58 	.word	0x20001a58
20000790:	20001a5c 	.word	0x20001a5c
20000794:	20001970 	.word	0x20001970
20000798:	20001988 	.word	0x20001988
2000079c:	20001994 	.word	0x20001994
200007a0:	422181b8 	.word	0x422181b8
200007a4:	200019a4 	.word	0x200019a4
200007a8:	200019b4 	.word	0x200019b4
200007ac:	20001a56 	.word	0x20001a56
200007b0:	200019c8 	.word	0x200019c8
200007b4:	200019e0 	.word	0x200019e0
200007b8:	200019e4 	.word	0x200019e4
200007bc:	200019f8 	.word	0x200019f8
200007c0:	cccccccd 	.word	0xcccccccd
200007c4:	422181b0 	.word	0x422181b0
200007c8:	0044aa20 	.word	0x0044aa20
200007cc:	20001b08 	.word	0x20001b08
200007d0:	f8d4 c008 	ldr.w	ip, [r4, #8]
200007d4:	4eb7      	ldr	r6, [pc, #732]	; (20000ab4 <lion_updown+0x91c>)
200007d6:	2302      	movs	r3, #2
200007d8:	aa03      	add	r2, sp, #12
200007da:	2101      	movs	r1, #1
200007dc:	2080      	movs	r0, #128	; 0x80
200007de:	f8c6 c000 	str.w	ip, [r6]
200007e2:	f000 ffb1 	bl	20001748 <i2c1_read>
200007e6:	2302      	movs	r3, #2
200007e8:	aa03      	add	r2, sp, #12
200007ea:	4619      	mov	r1, r3
200007ec:	2080      	movs	r0, #128	; 0x80
200007ee:	f000 ffab 	bl	20001748 <i2c1_read>
200007f2:	2302      	movs	r3, #2
200007f4:	f8bd c00c 	ldrh.w	ip, [sp, #12]
200007f8:	4eaf      	ldr	r6, [pc, #700]	; (20000ab8 <lion_updown+0x920>)
200007fa:	fa9c fc9c 	rev16.w	ip, ip
200007fe:	f3cc 0ccc 	ubfx	ip, ip, #3, #13
20000802:	fa0c fc03 	lsl.w	ip, ip, r3
20000806:	aa03      	add	r2, sp, #12
20000808:	2104      	movs	r1, #4
2000080a:	2080      	movs	r0, #128	; 0x80
2000080c:	f8a6 c000 	strh.w	ip, [r6]
20000810:	f000 ff9a 	bl	20001748 <i2c1_read>
20000814:	f44f 7096 	mov.w	r0, #300	; 0x12c
20000818:	4ba8      	ldr	r3, [pc, #672]	; (20000abc <lion_updown+0x924>)
2000081a:	f89d 100c 	ldrb.w	r1, [sp, #12]
2000081e:	881b      	ldrh	r3, [r3, #0]
20000820:	1c5a      	adds	r2, r3, #1
20000822:	4ba7      	ldr	r3, [pc, #668]	; (20000ac0 <lion_updown+0x928>)
20000824:	fba3 6302 	umull	r6, r3, r3, r2
20000828:	095b      	lsrs	r3, r3, #5
2000082a:	fb00 2313 	mls	r3, r0, r3, r2
2000082e:	f89d 200d 	ldrb.w	r2, [sp, #13]
20000832:	ea42 2201 	orr.w	r2, r2, r1, lsl #8
20000836:	49a3      	ldr	r1, [pc, #652]	; (20000ac4 <lion_updown+0x92c>)
20000838:	800a      	strh	r2, [r1, #0]
2000083a:	b913      	cbnz	r3, 20000842 <lion_updown+0x6aa>
2000083c:	2d01      	cmp	r5, #1
2000083e:	f000 817b 	beq.w	20000b38 <lion_updown+0x9a0>
20000842:	4fa0      	ldr	r7, [pc, #640]	; (20000ac4 <lion_updown+0x92c>)
20000844:	2203      	movs	r2, #3
20000846:	a905      	add	r1, sp, #20
20000848:	2080      	movs	r0, #128	; 0x80
2000084a:	f000 ff43 	bl	200016d4 <i2c1_write>
2000084e:	f9b7 3000 	ldrsh.w	r3, [r7]
20000852:	4a9d      	ldr	r2, [pc, #628]	; (20000ac8 <lion_updown+0x930>)
20000854:	17d8      	asrs	r0, r3, #31
20000856:	fb82 2303 	smull	r2, r3, r2, r3
2000085a:	4a97      	ldr	r2, [pc, #604]	; (20000ab8 <lion_updown+0x920>)
2000085c:	ebc0 03a3 	rsb	r3, r0, r3, asr #2
20000860:	f9b2 1000 	ldrsh.w	r1, [r2]
20000864:	b218      	sxth	r0, r3
20000866:	fb00 f101 	mul.w	r1, r0, r1
2000086a:	4b98      	ldr	r3, [pc, #608]	; (20000acc <lion_updown+0x934>)
2000086c:	2900      	cmp	r1, #0
2000086e:	bfb8      	it	lt
20000870:	4249      	neglt	r1, r1
20000872:	fba3 3101 	umull	r3, r1, r3, r1
20000876:	ea80 7ce0 	eor.w	ip, r0, r0, asr #31
2000087a:	f8d9 3000 	ldr.w	r3, [r9]
2000087e:	4e94      	ldr	r6, [pc, #592]	; (20000ad0 <lion_updown+0x938>)
20000880:	f341 118f 	sbfx	r1, r1, #6, #16
20000884:	ebac 7ce0 	sub.w	ip, ip, r0, asr #31
20000888:	4f92      	ldr	r7, [pc, #584]	; (20000ad4 <lion_updown+0x93c>)
2000088a:	8030      	strh	r0, [r6, #0]
2000088c:	4463      	add	r3, ip
2000088e:	4892      	ldr	r0, [pc, #584]	; (20000ad8 <lion_updown+0x940>)
20000890:	ea81 72e1 	eor.w	r2, r1, r1, asr #31
20000894:	8039      	strh	r1, [r7, #0]
20000896:	fa5f fc83 	uxtb.w	ip, r3
2000089a:	eba2 72e1 	sub.w	r2, r2, r1, asr #31
2000089e:	0c19      	lsrs	r1, r3, #16
200008a0:	f8c9 3000 	str.w	r3, [r9]
200008a4:	f8a0 c004 	strh.w	ip, [r0, #4]
200008a8:	8101      	strh	r1, [r0, #8]
200008aa:	498c      	ldr	r1, [pc, #560]	; (20000adc <lion_updown+0x944>)
200008ac:	4e8c      	ldr	r6, [pc, #560]	; (20000ae0 <lion_updown+0x948>)
200008ae:	460f      	mov	r7, r1
200008b0:	6809      	ldr	r1, [r1, #0]
200008b2:	fba6 c303 	umull	ip, r3, r6, r3
200008b6:	440a      	add	r2, r1
200008b8:	fa5f fc82 	uxtb.w	ip, r2
200008bc:	603a      	str	r2, [r7, #0]
200008be:	0c11      	lsrs	r1, r2, #16
200008c0:	4f7e      	ldr	r7, [pc, #504]	; (20000abc <lion_updown+0x924>)
200008c2:	f8a0 c00c 	strh.w	ip, [r0, #12]
200008c6:	8201      	strh	r1, [r0, #16]
200008c8:	8838      	ldrh	r0, [r7, #0]
200008ca:	f8df b264 	ldr.w	fp, [pc, #612]	; 20000b30 <lion_updown+0x998>
200008ce:	fba6 1202 	umull	r1, r2, r6, r2
200008d2:	fbab 1000 	umull	r1, r0, fp, r0
200008d6:	0940      	lsrs	r0, r0, #5
200008d8:	fbab 6100 	umull	r6, r1, fp, r0
200008dc:	4e81      	ldr	r6, [pc, #516]	; (20000ae4 <lion_updown+0x94c>)
200008de:	0949      	lsrs	r1, r1, #5
200008e0:	ebc1 1101 	rsb	r1, r1, r1, lsl #4
200008e4:	08db      	lsrs	r3, r3, #3
200008e6:	08d2      	lsrs	r2, r2, #3
200008e8:	eba0 0081 	sub.w	r0, r0, r1, lsl #2
200008ec:	6032      	str	r2, [r6, #0]
200008ee:	f8c8 3000 	str.w	r3, [r8]
200008f2:	4a7d      	ldr	r2, [pc, #500]	; (20000ae8 <lion_updown+0x950>)
200008f4:	4b7d      	ldr	r3, [pc, #500]	; (20000aec <lion_updown+0x954>)
200008f6:	2102      	movs	r1, #2
200008f8:	b280      	uxth	r0, r0
200008fa:	601a      	str	r2, [r3, #0]
200008fc:	f000 fe2a 	bl	20001554 <unt2uart>
20000900:	487b      	ldr	r0, [pc, #492]	; (20000af0 <lion_updown+0x958>)
20000902:	f000 fbb3 	bl	2000106c <UaPutS>
20000906:	8838      	ldrh	r0, [r7, #0]
20000908:	2102      	movs	r1, #2
2000090a:	fbab 3b00 	umull	r3, fp, fp, r0
2000090e:	ea4f 1b5b 	mov.w	fp, fp, lsr #5
20000912:	ebcb 1b0b 	rsb	fp, fp, fp, lsl #4
20000916:	eba0 008b 	sub.w	r0, r0, fp, lsl #2
2000091a:	b280      	uxth	r0, r0
2000091c:	f000 fe1a 	bl	20001554 <unt2uart>
20000920:	ab0e      	add	r3, sp, #56	; 0x38
20000922:	eb03 00c5 	add.w	r0, r3, r5, lsl #3
20000926:	f000 fba1 	bl	2000106c <UaPutS>
2000092a:	4b63      	ldr	r3, [pc, #396]	; (20000ab8 <lion_updown+0x920>)
2000092c:	2203      	movs	r2, #3
2000092e:	f9b3 0000 	ldrsh.w	r0, [r3]
20000932:	2104      	movs	r1, #4
20000934:	4f63      	ldr	r7, [pc, #396]	; (20000ac4 <lion_updown+0x92c>)
20000936:	f000 fe21 	bl	2000157c <int2uart>
2000093a:	486e      	ldr	r0, [pc, #440]	; (20000af4 <lion_updown+0x95c>)
2000093c:	f000 fb96 	bl	2000106c <UaPutS>
20000940:	2201      	movs	r2, #1
20000942:	2105      	movs	r1, #5
20000944:	f9b7 0000 	ldrsh.w	r0, [r7]
20000948:	f000 fe18 	bl	2000157c <int2uart>
2000094c:	486a      	ldr	r0, [pc, #424]	; (20000af8 <lion_updown+0x960>)
2000094e:	f000 fb8d 	bl	2000106c <UaPutS>
20000952:	4f60      	ldr	r7, [pc, #384]	; (20000ad4 <lion_updown+0x93c>)
20000954:	2202      	movs	r2, #2
20000956:	2106      	movs	r1, #6
20000958:	f8d8 0000 	ldr.w	r0, [r8]
2000095c:	f000 fe0e 	bl	2000157c <int2uart>
20000960:	4866      	ldr	r0, [pc, #408]	; (20000afc <lion_updown+0x964>)
20000962:	f000 fb83 	bl	2000106c <UaPutS>
20000966:	2203      	movs	r2, #3
20000968:	2104      	movs	r1, #4
2000096a:	f9b7 0000 	ldrsh.w	r0, [r7]
2000096e:	f000 fe05 	bl	2000157c <int2uart>
20000972:	4863      	ldr	r0, [pc, #396]	; (20000b00 <lion_updown+0x968>)
20000974:	f000 fb7a 	bl	2000106c <UaPutS>
20000978:	2202      	movs	r2, #2
2000097a:	2107      	movs	r1, #7
2000097c:	6830      	ldr	r0, [r6, #0]
2000097e:	f000 fdfd 	bl	2000157c <int2uart>
20000982:	4860      	ldr	r0, [pc, #384]	; (20000b04 <lion_updown+0x96c>)
20000984:	f000 fb72 	bl	2000106c <UaPutS>
20000988:	4b5f      	ldr	r3, [pc, #380]	; (20000b08 <lion_updown+0x970>)
2000098a:	2203      	movs	r2, #3
2000098c:	6858      	ldr	r0, [r3, #4]
2000098e:	2104      	movs	r1, #4
20000990:	f000 fdf4 	bl	2000157c <int2uart>
20000994:	485d      	ldr	r0, [pc, #372]	; (20000b0c <lion_updown+0x974>)
20000996:	f000 fb69 	bl	2000106c <UaPutS>
2000099a:	485d      	ldr	r0, [pc, #372]	; (20000b10 <lion_updown+0x978>)
2000099c:	f000 fb66 	bl	2000106c <UaPutS>
200009a0:	2202      	movs	r2, #2
200009a2:	4f46      	ldr	r7, [pc, #280]	; (20000abc <lion_updown+0x924>)
200009a4:	495b      	ldr	r1, [pc, #364]	; (20000b14 <lion_updown+0x97c>)
200009a6:	883b      	ldrh	r3, [r7, #0]
200009a8:	700a      	strb	r2, [r1, #0]
200009aa:	f013 0b01 	ands.w	fp, r3, #1
200009ae:	d023      	beq.n	200009f8 <lion_updown+0x860>
200009b0:	4a42      	ldr	r2, [pc, #264]	; (20000abc <lion_updown+0x924>)
200009b2:	3301      	adds	r3, #1
200009b4:	8013      	strh	r3, [r2, #0]
200009b6:	e4bc      	b.n	20000332 <lion_updown+0x19a>
200009b8:	2502      	movs	r5, #2
200009ba:	68a3      	ldr	r3, [r4, #8]
200009bc:	4a56      	ldr	r2, [pc, #344]	; (20000b18 <lion_updown+0x980>)
200009be:	6013      	str	r3, [r2, #0]
200009c0:	2301      	movs	r3, #1
200009c2:	4a56      	ldr	r2, [pc, #344]	; (20000b1c <lion_updown+0x984>)
200009c4:	9301      	str	r3, [sp, #4]
200009c6:	6813      	ldr	r3, [r2, #0]
200009c8:	f083 0301 	eor.w	r3, r3, #1
200009cc:	6013      	str	r3, [r2, #0]
200009ce:	e50d      	b.n	200003ec <lion_updown+0x254>
200009d0:	2d05      	cmp	r5, #5
200009d2:	f47f aeb4 	bne.w	2000073e <lion_updown+0x5a6>
200009d6:	2300      	movs	r3, #0
200009d8:	2101      	movs	r1, #1
200009da:	4a51      	ldr	r2, [pc, #324]	; (20000b20 <lion_updown+0x988>)
200009dc:	4d51      	ldr	r5, [pc, #324]	; (20000b24 <lion_updown+0x98c>)
200009de:	602b      	str	r3, [r5, #0]
200009e0:	6011      	str	r1, [r2, #0]
200009e2:	f8d8 2000 	ldr.w	r2, [r8]
200009e6:	493d      	ldr	r1, [pc, #244]	; (20000adc <lion_updown+0x944>)
200009e8:	4282      	cmp	r2, r0
200009ea:	f8c9 3000 	str.w	r3, [r9]
200009ee:	600b      	str	r3, [r1, #0]
200009f0:	f63f aeb1 	bhi.w	20000756 <lion_updown+0x5be>
200009f4:	2504      	movs	r5, #4
200009f6:	e4ec      	b.n	200003d2 <lion_updown+0x23a>
200009f8:	4b2f      	ldr	r3, [pc, #188]	; (20000ab8 <lion_updown+0x920>)
200009fa:	4e3c      	ldr	r6, [pc, #240]	; (20000aec <lion_updown+0x954>)
200009fc:	f9b3 0000 	ldrsh.w	r0, [r3]
20000a00:	4b49      	ldr	r3, [pc, #292]	; (20000b28 <lion_updown+0x990>)
20000a02:	465a      	mov	r2, fp
20000a04:	2104      	movs	r1, #4
20000a06:	6033      	str	r3, [r6, #0]
20000a08:	f000 fdce 	bl	200015a8 <int2uarz>
20000a0c:	202c      	movs	r0, #44	; 0x2c
20000a0e:	f000 fb11 	bl	20001034 <UaPutC>
20000a12:	4b2f      	ldr	r3, [pc, #188]	; (20000ad0 <lion_updown+0x938>)
20000a14:	465a      	mov	r2, fp
20000a16:	f9b3 0000 	ldrsh.w	r0, [r3]
20000a1a:	2104      	movs	r1, #4
20000a1c:	f000 fdc4 	bl	200015a8 <int2uarz>
20000a20:	202c      	movs	r0, #44	; 0x2c
20000a22:	f000 fb07 	bl	20001034 <UaPutC>
20000a26:	465a      	mov	r2, fp
20000a28:	2106      	movs	r1, #6
20000a2a:	f8d8 0000 	ldr.w	r0, [r8]
20000a2e:	f000 fdbb 	bl	200015a8 <int2uarz>
20000a32:	202c      	movs	r0, #44	; 0x2c
20000a34:	f000 fafe 	bl	20001034 <UaPutC>
20000a38:	4b26      	ldr	r3, [pc, #152]	; (20000ad4 <lion_updown+0x93c>)
20000a3a:	465a      	mov	r2, fp
20000a3c:	f9b3 0000 	ldrsh.w	r0, [r3]
20000a40:	2104      	movs	r1, #4
20000a42:	f000 fdb1 	bl	200015a8 <int2uarz>
20000a46:	202c      	movs	r0, #44	; 0x2c
20000a48:	f000 faf4 	bl	20001034 <UaPutC>
20000a4c:	4b25      	ldr	r3, [pc, #148]	; (20000ae4 <lion_updown+0x94c>)
20000a4e:	465a      	mov	r2, fp
20000a50:	6818      	ldr	r0, [r3, #0]
20000a52:	2107      	movs	r1, #7
20000a54:	f000 fda8 	bl	200015a8 <int2uarz>
20000a58:	202c      	movs	r0, #44	; 0x2c
20000a5a:	f000 faeb 	bl	20001034 <UaPutC>
20000a5e:	4a22      	ldr	r2, [pc, #136]	; (20000ae8 <lion_updown+0x950>)
20000a60:	883b      	ldrh	r3, [r7, #0]
20000a62:	6032      	str	r2, [r6, #0]
20000a64:	e7a4      	b.n	200009b0 <lion_updown+0x818>
20000a66:	2501      	movs	r5, #1
20000a68:	2200      	movs	r2, #0
20000a6a:	9501      	str	r5, [sp, #4]
20000a6c:	2502      	movs	r5, #2
20000a6e:	492c      	ldr	r1, [pc, #176]	; (20000b20 <lion_updown+0x988>)
20000a70:	600a      	str	r2, [r1, #0]
20000a72:	f841 2c04 	str.w	r2, [r1, #-4]
20000a76:	f8d8 2000 	ldr.w	r2, [r8]
20000a7a:	4282      	cmp	r2, r0
20000a7c:	f63f ac99 	bhi.w	200003b2 <lion_updown+0x21a>
20000a80:	e661      	b.n	20000746 <lion_updown+0x5ae>
20000a82:	2201      	movs	r2, #1
20000a84:	4926      	ldr	r1, [pc, #152]	; (20000b20 <lion_updown+0x988>)
20000a86:	f8df e0ac 	ldr.w	lr, [pc, #172]	; 20000b34 <lion_updown+0x99c>
20000a8a:	600d      	str	r5, [r1, #0]
20000a8c:	f841 2c04 	str.w	r2, [r1, #-4]
20000a90:	68a2      	ldr	r2, [r4, #8]
20000a92:	4926      	ldr	r1, [pc, #152]	; (20000b2c <lion_updown+0x994>)
20000a94:	600a      	str	r2, [r1, #0]
20000a96:	4a25      	ldr	r2, [pc, #148]	; (20000b2c <lion_updown+0x994>)
20000a98:	6812      	ldr	r2, [r2, #0]
20000a9a:	68a1      	ldr	r1, [r4, #8]
20000a9c:	1a52      	subs	r2, r2, r1
20000a9e:	4572      	cmp	r2, lr
20000aa0:	d9f9      	bls.n	20000a96 <lion_updown+0x8fe>
20000aa2:	f04f 0e00 	mov.w	lr, #0
20000aa6:	2101      	movs	r1, #1
20000aa8:	4a1d      	ldr	r2, [pc, #116]	; (20000b20 <lion_updown+0x988>)
20000aaa:	4e1e      	ldr	r6, [pc, #120]	; (20000b24 <lion_updown+0x98c>)
20000aac:	f8c6 e000 	str.w	lr, [r6]
20000ab0:	6011      	str	r1, [r2, #0]
20000ab2:	e7e0      	b.n	20000a76 <lion_updown+0x8de>
20000ab4:	20001aa0 	.word	0x20001aa0
20000ab8:	20001a54 	.word	0x20001a54
20000abc:	20001a40 	.word	0x20001a40
20000ac0:	1b4e81b5 	.word	0x1b4e81b5
20000ac4:	20001a50 	.word	0x20001a50
20000ac8:	66666667 	.word	0x66666667
20000acc:	10624dd3 	.word	0x10624dd3
20000ad0:	20001a4a 	.word	0x20001a4a
20000ad4:	20001a52 	.word	0x20001a52
20000ad8:	40006c00 	.word	0x40006c00
20000adc:	20001a4c 	.word	0x20001a4c
20000ae0:	38e38e39 	.word	0x38e38e39
20000ae4:	20001a2c 	.word	0x20001a2c
20000ae8:	20001021 	.word	0x20001021
20000aec:	20001af0 	.word	0x20001af0
20000af0:	200018c8 	.word	0x200018c8
20000af4:	200018cc 	.word	0x200018cc
20000af8:	200018d0 	.word	0x200018d0
20000afc:	200018d4 	.word	0x200018d4
20000b00:	200018d8 	.word	0x200018d8
20000b04:	200018dc 	.word	0x200018dc
20000b08:	20001a34 	.word	0x20001a34
20000b0c:	200018e0 	.word	0x200018e0
20000b10:	200018e4 	.word	0x200018e4
20000b14:	20001a48 	.word	0x20001a48
20000b18:	20001b08 	.word	0x20001b08
20000b1c:	422181b8 	.word	0x422181b8
20000b20:	422181b4 	.word	0x422181b4
20000b24:	422181b0 	.word	0x422181b0
20000b28:	2000100d 	.word	0x2000100d
20000b2c:	20001ae0 	.word	0x20001ae0
20000b30:	88888889 	.word	0x88888889
20000b34:	0006ddcf 	.word	0x0006ddcf
20000b38:	4830      	ldr	r0, [pc, #192]	; (20000bfc <lion_updown+0xa64>)
20000b3a:	4931      	ldr	r1, [pc, #196]	; (20000c00 <lion_updown+0xa68>)
20000b3c:	6802      	ldr	r2, [r0, #0]
20000b3e:	3201      	adds	r2, #1
20000b40:	6002      	str	r2, [r0, #0]
20000b42:	4a30      	ldr	r2, [pc, #192]	; (20000c04 <lion_updown+0xa6c>)
20000b44:	6013      	str	r3, [r2, #0]
20000b46:	68a3      	ldr	r3, [r4, #8]
20000b48:	4a2f      	ldr	r2, [pc, #188]	; (20000c08 <lion_updown+0xa70>)
20000b4a:	6013      	str	r3, [r2, #0]
20000b4c:	4b2e      	ldr	r3, [pc, #184]	; (20000c08 <lion_updown+0xa70>)
20000b4e:	681b      	ldr	r3, [r3, #0]
20000b50:	68a2      	ldr	r2, [r4, #8]
20000b52:	1a9b      	subs	r3, r3, r2
20000b54:	428b      	cmp	r3, r1
20000b56:	d9f9      	bls.n	20000b4c <lion_updown+0x9b4>
20000b58:	2203      	movs	r2, #3
20000b5a:	a906      	add	r1, sp, #24
20000b5c:	2080      	movs	r0, #128	; 0x80
20000b5e:	f000 fdb9 	bl	200016d4 <i2c1_write>
20000b62:	68a3      	ldr	r3, [r4, #8]
20000b64:	4a28      	ldr	r2, [pc, #160]	; (20000c08 <lion_updown+0xa70>)
20000b66:	4929      	ldr	r1, [pc, #164]	; (20000c0c <lion_updown+0xa74>)
20000b68:	6013      	str	r3, [r2, #0]
20000b6a:	4b27      	ldr	r3, [pc, #156]	; (20000c08 <lion_updown+0xa70>)
20000b6c:	681b      	ldr	r3, [r3, #0]
20000b6e:	68a2      	ldr	r2, [r4, #8]
20000b70:	1a9b      	subs	r3, r3, r2
20000b72:	428b      	cmp	r3, r1
20000b74:	d9f9      	bls.n	20000b6a <lion_updown+0x9d2>
20000b76:	2302      	movs	r3, #2
20000b78:	aa03      	add	r2, sp, #12
20000b7a:	4619      	mov	r1, r3
20000b7c:	2080      	movs	r0, #128	; 0x80
20000b7e:	f000 fde3 	bl	20001748 <i2c1_read>
20000b82:	2201      	movs	r2, #1
20000b84:	f242 3127 	movw	r1, #8999	; 0x2327
20000b88:	f8bd 300c 	ldrh.w	r3, [sp, #12]
20000b8c:	481d      	ldr	r0, [pc, #116]	; (20000c04 <lion_updown+0xa6c>)
20000b8e:	ba5b      	rev16	r3, r3
20000b90:	f3c3 03cc 	ubfx	r3, r3, #3, #13
20000b94:	6002      	str	r2, [r0, #0]
20000b96:	eb03 2003 	add.w	r0, r3, r3, lsl #8
20000b9a:	eb03 0340 	add.w	r3, r3, r0, lsl #1
20000b9e:	68a2      	ldr	r2, [r4, #8]
20000ba0:	f343 10cf 	sbfx	r0, r3, #7, #16
20000ba4:	4b18      	ldr	r3, [pc, #96]	; (20000c08 <lion_updown+0xa70>)
20000ba6:	601a      	str	r2, [r3, #0]
20000ba8:	4b17      	ldr	r3, [pc, #92]	; (20000c08 <lion_updown+0xa70>)
20000baa:	681b      	ldr	r3, [r3, #0]
20000bac:	68a2      	ldr	r2, [r4, #8]
20000bae:	1a9b      	subs	r3, r3, r2
20000bb0:	428b      	cmp	r3, r1
20000bb2:	d9f9      	bls.n	20000ba8 <lion_updown+0xa10>
20000bb4:	f44f 737a 	mov.w	r3, #1000	; 0x3e8
20000bb8:	4a15      	ldr	r2, [pc, #84]	; (20000c10 <lion_updown+0xa78>)
20000bba:	f9b2 2000 	ldrsh.w	r2, [r2]
20000bbe:	1a82      	subs	r2, r0, r2
20000bc0:	fb03 f302 	mul.w	r3, r3, r2
20000bc4:	4a13      	ldr	r2, [pc, #76]	; (20000c14 <lion_updown+0xa7c>)
20000bc6:	4814      	ldr	r0, [pc, #80]	; (20000c18 <lion_updown+0xa80>)
20000bc8:	f9b2 1000 	ldrsh.w	r1, [r2]
20000bcc:	6802      	ldr	r2, [r0, #0]
20000bce:	fb93 f3f1 	sdiv	r3, r3, r1
20000bd2:	490a      	ldr	r1, [pc, #40]	; (20000bfc <lion_updown+0xa64>)
20000bd4:	2b00      	cmp	r3, #0
20000bd6:	bfb8      	it	lt
20000bd8:	425b      	neglt	r3, r3
20000bda:	b21b      	sxth	r3, r3
20000bdc:	6809      	ldr	r1, [r1, #0]
20000bde:	4413      	add	r3, r2
20000be0:	fbb3 f1f1 	udiv	r1, r3, r1
20000be4:	e9c0 3100 	strd	r3, r1, [r0]
20000be8:	e62b      	b.n	20000842 <lion_updown+0x6aa>
20000bea:	2201      	movs	r2, #1
20000bec:	490b      	ldr	r1, [pc, #44]	; (20000c1c <lion_updown+0xa84>)
20000bee:	2505      	movs	r5, #5
20000bf0:	600b      	str	r3, [r1, #0]
20000bf2:	9301      	str	r3, [sp, #4]
20000bf4:	4b03      	ldr	r3, [pc, #12]	; (20000c04 <lion_updown+0xa6c>)
20000bf6:	601a      	str	r2, [r3, #0]
20000bf8:	f7ff bb93 	b.w	20000322 <lion_updown+0x18a>
20000bfc:	20001a44 	.word	0x20001a44
20000c00:	0044aa1f 	.word	0x0044aa1f
20000c04:	422181b0 	.word	0x422181b0
20000c08:	20001ae0 	.word	0x20001ae0
20000c0c:	0002bf1f 	.word	0x0002bf1f
20000c10:	20001a54 	.word	0x20001a54
20000c14:	20001a4a 	.word	0x20001a4a
20000c18:	20001a34 	.word	0x20001a34
20000c1c:	422181b4 	.word	0x422181b4

20000c20 <main>:
20000c20:	2101      	movs	r1, #1
20000c22:	b508      	push	{r3, lr}
20000c24:	4b1b      	ldr	r3, [pc, #108]	; (20000c94 <main+0x74>)
20000c26:	4a1c      	ldr	r2, [pc, #112]	; (20000c98 <main+0x78>)
20000c28:	6019      	str	r1, [r3, #0]
20000c2a:	6813      	ldr	r3, [r2, #0]
20000c2c:	2b00      	cmp	r3, #0
20000c2e:	d0fc      	beq.n	20000c2a <main+0xa>
20000c30:	2401      	movs	r4, #1
20000c32:	491a      	ldr	r1, [pc, #104]	; (20000c9c <main+0x7c>)
20000c34:	481a      	ldr	r0, [pc, #104]	; (20000ca0 <main+0x80>)
20000c36:	684b      	ldr	r3, [r1, #4]
20000c38:	4a1a      	ldr	r2, [pc, #104]	; (20000ca4 <main+0x84>)
20000c3a:	f443 13e8 	orr.w	r3, r3, #1900544	; 0x1d0000
20000c3e:	f443 6380 	orr.w	r3, r3, #1024	; 0x400
20000c42:	604b      	str	r3, [r1, #4]
20000c44:	6004      	str	r4, [r0, #0]
20000c46:	6813      	ldr	r3, [r2, #0]
20000c48:	2b00      	cmp	r3, #0
20000c4a:	d0fc      	beq.n	20000c46 <main+0x26>
20000c4c:	4b13      	ldr	r3, [pc, #76]	; (20000c9c <main+0x7c>)
20000c4e:	461a      	mov	r2, r3
20000c50:	6859      	ldr	r1, [r3, #4]
20000c52:	f041 0102 	orr.w	r1, r1, #2
20000c56:	6059      	str	r1, [r3, #4]
20000c58:	6853      	ldr	r3, [r2, #4]
20000c5a:	f003 030c 	and.w	r3, r3, #12
20000c5e:	2b08      	cmp	r3, #8
20000c60:	d1fa      	bne.n	20000c58 <main+0x38>
20000c62:	201d      	movs	r0, #29
20000c64:	f04f 5600 	mov.w	r6, #536870912	; 0x20000000
20000c68:	f04f 7500 	mov.w	r5, #33554432	; 0x2000000
20000c6c:	2103      	movs	r1, #3
20000c6e:	4b0e      	ldr	r3, [pc, #56]	; (20000ca8 <main+0x88>)
20000c70:	4c0e      	ldr	r4, [pc, #56]	; (20000cac <main+0x8c>)
20000c72:	609e      	str	r6, [r3, #8]
20000c74:	6190      	str	r0, [r2, #24]
20000c76:	480e      	ldr	r0, [pc, #56]	; (20000cb0 <main+0x90>)
20000c78:	f5a3 634f 	sub.w	r3, r3, #3312	; 0xcf0
20000c7c:	4a0d      	ldr	r2, [pc, #52]	; (20000cb4 <main+0x94>)
20000c7e:	6065      	str	r5, [r4, #4]
20000c80:	6058      	str	r0, [r3, #4]
20000c82:	6019      	str	r1, [r3, #0]
20000c84:	6853      	ldr	r3, [r2, #4]
20000c86:	f423 0370 	bic.w	r3, r3, #15728640	; 0xf00000
20000c8a:	f443 1380 	orr.w	r3, r3, #1048576	; 0x100000
20000c8e:	6053      	str	r3, [r2, #4]
20000c90:	f7ff fa82 	bl	20000198 <lion_updown>
20000c94:	42420040 	.word	0x42420040
20000c98:	42420044 	.word	0x42420044
20000c9c:	40021000 	.word	0x40021000
20000ca0:	42420060 	.word	0x42420060
20000ca4:	42420064 	.word	0x42420064
20000ca8:	e000ed00 	.word	0xe000ed00
20000cac:	40010000 	.word	0x40010000
20000cb0:	0089543f 	.word	0x0089543f
20000cb4:	40011000 	.word	0x40011000

20000cb8 <SysTick_Handler>:
20000cb8:	4814      	ldr	r0, [pc, #80]	; (20000d0c <SysTick_Handler+0x54>)
20000cba:	4b15      	ldr	r3, [pc, #84]	; (20000d10 <SysTick_Handler+0x58>)
20000cbc:	6802      	ldr	r2, [r0, #0]
20000cbe:	4915      	ldr	r1, [pc, #84]	; (20000d14 <SysTick_Handler+0x5c>)
20000cc0:	441a      	add	r2, r3
20000cc2:	6002      	str	r2, [r0, #0]
20000cc4:	680a      	ldr	r2, [r1, #0]
20000cc6:	4814      	ldr	r0, [pc, #80]	; (20000d18 <SysTick_Handler+0x60>)
20000cc8:	441a      	add	r2, r3
20000cca:	600a      	str	r2, [r1, #0]
20000ccc:	6802      	ldr	r2, [r0, #0]
20000cce:	4913      	ldr	r1, [pc, #76]	; (20000d1c <SysTick_Handler+0x64>)
20000cd0:	441a      	add	r2, r3
20000cd2:	6002      	str	r2, [r0, #0]
20000cd4:	680a      	ldr	r2, [r1, #0]
20000cd6:	4812      	ldr	r0, [pc, #72]	; (20000d20 <SysTick_Handler+0x68>)
20000cd8:	441a      	add	r2, r3
20000cda:	600a      	str	r2, [r1, #0]
20000cdc:	6802      	ldr	r2, [r0, #0]
20000cde:	4911      	ldr	r1, [pc, #68]	; (20000d24 <SysTick_Handler+0x6c>)
20000ce0:	441a      	add	r2, r3
20000ce2:	6002      	str	r2, [r0, #0]
20000ce4:	680a      	ldr	r2, [r1, #0]
20000ce6:	4810      	ldr	r0, [pc, #64]	; (20000d28 <SysTick_Handler+0x70>)
20000ce8:	441a      	add	r2, r3
20000cea:	600a      	str	r2, [r1, #0]
20000cec:	6802      	ldr	r2, [r0, #0]
20000cee:	490f      	ldr	r1, [pc, #60]	; (20000d2c <SysTick_Handler+0x74>)
20000cf0:	441a      	add	r2, r3
20000cf2:	6002      	str	r2, [r0, #0]
20000cf4:	680a      	ldr	r2, [r1, #0]
20000cf6:	480e      	ldr	r0, [pc, #56]	; (20000d30 <SysTick_Handler+0x78>)
20000cf8:	441a      	add	r2, r3
20000cfa:	600a      	str	r2, [r1, #0]
20000cfc:	6802      	ldr	r2, [r0, #0]
20000cfe:	490d      	ldr	r1, [pc, #52]	; (20000d34 <SysTick_Handler+0x7c>)
20000d00:	441a      	add	r2, r3
20000d02:	6002      	str	r2, [r0, #0]
20000d04:	680a      	ldr	r2, [r1, #0]
20000d06:	4413      	add	r3, r2
20000d08:	600b      	str	r3, [r1, #0]
20000d0a:	4770      	bx	lr
20000d0c:	20001a98 	.word	0x20001a98
20000d10:	00895440 	.word	0x00895440
20000d14:	20001ae0 	.word	0x20001ae0
20000d18:	20001b00 	.word	0x20001b00
20000d1c:	20001adc 	.word	0x20001adc
20000d20:	20001aa0 	.word	0x20001aa0
20000d24:	20001ae8 	.word	0x20001ae8
20000d28:	20001b08 	.word	0x20001b08
20000d2c:	20001a9c 	.word	0x20001a9c
20000d30:	20001ae4 	.word	0x20001ae4
20000d34:	20001ad8 	.word	0x20001ad8

20000d38 <TIM2_IRQHandler>:
20000d38:	4668      	mov	r0, sp
20000d3a:	f020 0107 	bic.w	r1, r0, #7
20000d3e:	468d      	mov	sp, r1
20000d40:	2300      	movs	r3, #0
20000d42:	f04f 4280 	mov.w	r2, #1073741824	; 0x40000000
20000d46:	b401      	push	{r0}
20000d48:	4902      	ldr	r1, [pc, #8]	; (20000d54 <TIM2_IRQHandler+0x1c>)
20000d4a:	bc01      	pop	{r0}
20000d4c:	600b      	str	r3, [r1, #0]
20000d4e:	4685      	mov	sp, r0
20000d50:	8213      	strh	r3, [r2, #16]
20000d52:	4770      	bx	lr
20000d54:	42000200 	.word	0x42000200

20000d58 <TIM3_IRQHandler>:
20000d58:	4668      	mov	r0, sp
20000d5a:	f020 0107 	bic.w	r1, r0, #7
20000d5e:	468d      	mov	sp, r1
20000d60:	b401      	push	{r0}
20000d62:	2000      	movs	r0, #0
20000d64:	f64f 73ff 	movw	r3, #65535	; 0xffff
20000d68:	4a0c      	ldr	r2, [pc, #48]	; (20000d9c <TIM3_IRQHandler+0x44>)
20000d6a:	490d      	ldr	r1, [pc, #52]	; (20000da0 <TIM3_IRQHandler+0x48>)
20000d6c:	8210      	strh	r0, [r2, #16]
20000d6e:	680a      	ldr	r2, [r1, #0]
20000d70:	480c      	ldr	r0, [pc, #48]	; (20000da4 <TIM3_IRQHandler+0x4c>)
20000d72:	441a      	add	r2, r3
20000d74:	600a      	str	r2, [r1, #0]
20000d76:	6802      	ldr	r2, [r0, #0]
20000d78:	490b      	ldr	r1, [pc, #44]	; (20000da8 <TIM3_IRQHandler+0x50>)
20000d7a:	441a      	add	r2, r3
20000d7c:	6002      	str	r2, [r0, #0]
20000d7e:	680a      	ldr	r2, [r1, #0]
20000d80:	480a      	ldr	r0, [pc, #40]	; (20000dac <TIM3_IRQHandler+0x54>)
20000d82:	441a      	add	r2, r3
20000d84:	600a      	str	r2, [r1, #0]
20000d86:	6802      	ldr	r2, [r0, #0]
20000d88:	4909      	ldr	r1, [pc, #36]	; (20000db0 <TIM3_IRQHandler+0x58>)
20000d8a:	441a      	add	r2, r3
20000d8c:	6002      	str	r2, [r0, #0]
20000d8e:	680a      	ldr	r2, [r1, #0]
20000d90:	bc01      	pop	{r0}
20000d92:	4413      	add	r3, r2
20000d94:	600b      	str	r3, [r1, #0]
20000d96:	4685      	mov	sp, r0
20000d98:	4770      	bx	lr
20000d9a:	bf00      	nop
20000d9c:	40000400 	.word	0x40000400
20000da0:	20001aa4 	.word	0x20001aa4
20000da4:	20001aec 	.word	0x20001aec
20000da8:	20001afc 	.word	0x20001afc
20000dac:	20001a90 	.word	0x20001a90
20000db0:	20001ad4 	.word	0x20001ad4

20000db4 <EXTI0_IRQHandler>:
20000db4:	4668      	mov	r0, sp
20000db6:	f020 0107 	bic.w	r1, r0, #7
20000dba:	468d      	mov	sp, r1
20000dbc:	4b06      	ldr	r3, [pc, #24]	; (20000dd8 <EXTI0_IRQHandler+0x24>)
20000dbe:	b401      	push	{r0}
20000dc0:	681b      	ldr	r3, [r3, #0]
20000dc2:	b11b      	cbz	r3, 20000dcc <EXTI0_IRQHandler+0x18>
20000dc4:	2201      	movs	r2, #1
20000dc6:	4b05      	ldr	r3, [pc, #20]	; (20000ddc <EXTI0_IRQHandler+0x28>)
20000dc8:	015b      	lsls	r3, r3, #5
20000dca:	625a      	str	r2, [r3, #36]	; 0x24
20000dcc:	2201      	movs	r2, #1
20000dce:	4b04      	ldr	r3, [pc, #16]	; (20000de0 <EXTI0_IRQHandler+0x2c>)
20000dd0:	bc01      	pop	{r0}
20000dd2:	615a      	str	r2, [r3, #20]
20000dd4:	4685      	mov	sp, r0
20000dd6:	4770      	bx	lr
20000dd8:	42218100 	.word	0x42218100
20000ddc:	21101a30 	.word	0x21101a30
20000de0:	40010400 	.word	0x40010400

20000de4 <EXTI1_IRQHandler>:
20000de4:	4668      	mov	r0, sp
20000de6:	f020 0107 	bic.w	r1, r0, #7
20000dea:	468d      	mov	sp, r1
20000dec:	2102      	movs	r1, #2
20000dee:	4b05      	ldr	r3, [pc, #20]	; (20000e04 <EXTI1_IRQHandler+0x20>)
20000df0:	4a05      	ldr	r2, [pc, #20]	; (20000e08 <EXTI1_IRQHandler+0x24>)
20000df2:	b401      	push	{r0}
20000df4:	6159      	str	r1, [r3, #20]
20000df6:	6813      	ldr	r3, [r2, #0]
20000df8:	bc01      	pop	{r0}
20000dfa:	f083 0301 	eor.w	r3, r3, #1
20000dfe:	6013      	str	r3, [r2, #0]
20000e00:	4685      	mov	sp, r0
20000e02:	4770      	bx	lr
20000e04:	40010400 	.word	0x40010400
20000e08:	422201b4 	.word	0x422201b4

20000e0c <EXTI2_IRQHandler>:
20000e0c:	4668      	mov	r0, sp
20000e0e:	f020 0107 	bic.w	r1, r0, #7
20000e12:	468d      	mov	sp, r1
20000e14:	2101      	movs	r1, #1
20000e16:	4b05      	ldr	r3, [pc, #20]	; (20000e2c <EXTI2_IRQHandler+0x20>)
20000e18:	4a05      	ldr	r2, [pc, #20]	; (20000e30 <EXTI2_IRQHandler+0x24>)
20000e1a:	b401      	push	{r0}
20000e1c:	6019      	str	r1, [r3, #0]
20000e1e:	6813      	ldr	r3, [r2, #0]
20000e20:	bc01      	pop	{r0}
20000e22:	404b      	eors	r3, r1
20000e24:	6013      	str	r3, [r2, #0]
20000e26:	4685      	mov	sp, r0
20000e28:	4770      	bx	lr
20000e2a:	bf00      	nop
20000e2c:	42208288 	.word	0x42208288
20000e30:	422201b4 	.word	0x422201b4

20000e34 <EXTI3_IRQHandler>:
20000e34:	4668      	mov	r0, sp
20000e36:	f020 0107 	bic.w	r1, r0, #7
20000e3a:	468d      	mov	sp, r1
20000e3c:	2108      	movs	r1, #8
20000e3e:	4b05      	ldr	r3, [pc, #20]	; (20000e54 <EXTI3_IRQHandler+0x20>)
20000e40:	4a05      	ldr	r2, [pc, #20]	; (20000e58 <EXTI3_IRQHandler+0x24>)
20000e42:	b401      	push	{r0}
20000e44:	6159      	str	r1, [r3, #20]
20000e46:	6813      	ldr	r3, [r2, #0]
20000e48:	bc01      	pop	{r0}
20000e4a:	f083 0301 	eor.w	r3, r3, #1
20000e4e:	6013      	str	r3, [r2, #0]
20000e50:	4685      	mov	sp, r0
20000e52:	4770      	bx	lr
20000e54:	40010400 	.word	0x40010400
20000e58:	422201b4 	.word	0x422201b4

20000e5c <EXTI4_IRQHandler>:
20000e5c:	4668      	mov	r0, sp
20000e5e:	f020 0107 	bic.w	r1, r0, #7
20000e62:	468d      	mov	sp, r1
20000e64:	2110      	movs	r1, #16
20000e66:	4b05      	ldr	r3, [pc, #20]	; (20000e7c <EXTI4_IRQHandler+0x20>)
20000e68:	4a05      	ldr	r2, [pc, #20]	; (20000e80 <EXTI4_IRQHandler+0x24>)
20000e6a:	b401      	push	{r0}
20000e6c:	6159      	str	r1, [r3, #20]
20000e6e:	6813      	ldr	r3, [r2, #0]
20000e70:	bc01      	pop	{r0}
20000e72:	f083 0301 	eor.w	r3, r3, #1
20000e76:	6013      	str	r3, [r2, #0]
20000e78:	4685      	mov	sp, r0
20000e7a:	4770      	bx	lr
20000e7c:	40010400 	.word	0x40010400
20000e80:	422201b4 	.word	0x422201b4

20000e84 <EXTI15_10_IRQHandler>:
20000e84:	4668      	mov	r0, sp
20000e86:	f020 0107 	bic.w	r1, r0, #7
20000e8a:	468d      	mov	sp, r1
20000e8c:	4b04      	ldr	r3, [pc, #16]	; (20000ea0 <EXTI15_10_IRQHandler+0x1c>)
20000e8e:	b401      	push	{r0}
20000e90:	681a      	ldr	r2, [r3, #0]
20000e92:	b10a      	cbz	r2, 20000e98 <EXTI15_10_IRQHandler+0x14>
20000e94:	2201      	movs	r2, #1
20000e96:	601a      	str	r2, [r3, #0]
20000e98:	bc01      	pop	{r0}
20000e9a:	4685      	mov	sp, r0
20000e9c:	4770      	bx	lr
20000e9e:	bf00      	nop
20000ea0:	422082b4 	.word	0x422082b4

20000ea4 <EXTI9_5_IRQHandler>:
20000ea4:	4668      	mov	r0, sp
20000ea6:	f020 0107 	bic.w	r1, r0, #7
20000eaa:	468d      	mov	sp, r1
20000eac:	4b0b      	ldr	r3, [pc, #44]	; (20000edc <EXTI9_5_IRQHandler+0x38>)
20000eae:	b401      	push	{r0}
20000eb0:	681b      	ldr	r3, [r3, #0]
20000eb2:	b983      	cbnz	r3, 20000ed6 <EXTI9_5_IRQHandler+0x32>
20000eb4:	f103 4380 	add.w	r3, r3, #1073741824	; 0x40000000
20000eb8:	f503 3382 	add.w	r3, r3, #66560	; 0x10400
20000ebc:	695a      	ldr	r2, [r3, #20]
20000ebe:	0652      	lsls	r2, r2, #25
20000ec0:	d509      	bpl.n	20000ed6 <EXTI9_5_IRQHandler+0x32>
20000ec2:	2001      	movs	r0, #1
20000ec4:	2140      	movs	r1, #64	; 0x40
20000ec6:	4a06      	ldr	r2, [pc, #24]	; (20000ee0 <EXTI9_5_IRQHandler+0x3c>)
20000ec8:	0152      	lsls	r2, r2, #5
20000eca:	6050      	str	r0, [r2, #4]
20000ecc:	6159      	str	r1, [r3, #20]
20000ece:	68da      	ldr	r2, [r3, #12]
20000ed0:	f022 0240 	bic.w	r2, r2, #64	; 0x40
20000ed4:	60da      	str	r2, [r3, #12]
20000ed6:	bc01      	pop	{r0}
20000ed8:	4685      	mov	sp, r0
20000eda:	4770      	bx	lr
20000edc:	42218118 	.word	0x42218118
20000ee0:	21101a30 	.word	0x21101a30

20000ee4 <RTC_IRQHandler>:
20000ee4:	4668      	mov	r0, sp
20000ee6:	f020 0107 	bic.w	r1, r0, #7
20000eea:	468d      	mov	sp, r1
20000eec:	2101      	movs	r1, #1
20000eee:	b411      	push	{r0, r4}
20000ef0:	2400      	movs	r4, #0
20000ef2:	4b06      	ldr	r3, [pc, #24]	; (20000f0c <RTC_IRQHandler+0x28>)
20000ef4:	4806      	ldr	r0, [pc, #24]	; (20000f10 <RTC_IRQHandler+0x2c>)
20000ef6:	015b      	lsls	r3, r3, #5
20000ef8:	4a06      	ldr	r2, [pc, #24]	; (20000f14 <RTC_IRQHandler+0x30>)
20000efa:	6004      	str	r4, [r0, #0]
20000efc:	60d9      	str	r1, [r3, #12]
20000efe:	6813      	ldr	r3, [r2, #0]
20000f00:	2b00      	cmp	r3, #0
20000f02:	d0fc      	beq.n	20000efe <RTC_IRQHandler+0x1a>
20000f04:	bc11      	pop	{r0, r4}
20000f06:	4685      	mov	sp, r0
20000f08:	4770      	bx	lr
20000f0a:	bf00      	nop
20000f0c:	21101a30 	.word	0x21101a30
20000f10:	42050080 	.word	0x42050080
20000f14:	42050094 	.word	0x42050094

20000f18 <RTCAlarm_IRQHandler>:
20000f18:	4668      	mov	r0, sp
20000f1a:	f020 0107 	bic.w	r1, r0, #7
20000f1e:	468d      	mov	sp, r1
20000f20:	4907      	ldr	r1, [pc, #28]	; (20000f40 <RTCAlarm_IRQHandler+0x28>)
20000f22:	4a08      	ldr	r2, [pc, #32]	; (20000f44 <RTCAlarm_IRQHandler+0x2c>)
20000f24:	888b      	ldrh	r3, [r1, #4]
20000f26:	b401      	push	{r0}
20000f28:	f023 0302 	bic.w	r3, r3, #2
20000f2c:	041b      	lsls	r3, r3, #16
20000f2e:	0c1b      	lsrs	r3, r3, #16
20000f30:	808b      	strh	r3, [r1, #4]
20000f32:	6953      	ldr	r3, [r2, #20]
20000f34:	bc01      	pop	{r0}
20000f36:	f443 3300 	orr.w	r3, r3, #131072	; 0x20000
20000f3a:	6153      	str	r3, [r2, #20]
20000f3c:	4685      	mov	sp, r0
20000f3e:	4770      	bx	lr
20000f40:	40002800 	.word	0x40002800
20000f44:	40010400 	.word	0x40010400

20000f48 <DMA1_Channel1_IRQHandler>:
20000f48:	4668      	mov	r0, sp
20000f4a:	f020 0107 	bic.w	r1, r0, #7
20000f4e:	468d      	mov	sp, r1
20000f50:	4b08      	ldr	r3, [pc, #32]	; (20000f74 <DMA1_Channel1_IRQHandler+0x2c>)
20000f52:	b411      	push	{r0, r4}
20000f54:	681a      	ldr	r2, [r3, #0]
20000f56:	07d2      	lsls	r2, r2, #31
20000f58:	d509      	bpl.n	20000f6e <DMA1_Channel1_IRQHandler+0x26>
20000f5a:	2001      	movs	r0, #1
20000f5c:	2402      	movs	r4, #2
20000f5e:	4a06      	ldr	r2, [pc, #24]	; (20000f78 <DMA1_Channel1_IRQHandler+0x30>)
20000f60:	4906      	ldr	r1, [pc, #24]	; (20000f7c <DMA1_Channel1_IRQHandler+0x34>)
20000f62:	0152      	lsls	r2, r2, #5
20000f64:	605c      	str	r4, [r3, #4]
20000f66:	61d0      	str	r0, [r2, #28]
20000f68:	680b      	ldr	r3, [r1, #0]
20000f6a:	4043      	eors	r3, r0
20000f6c:	600b      	str	r3, [r1, #0]
20000f6e:	bc11      	pop	{r0, r4}
20000f70:	4685      	mov	sp, r0
20000f72:	4770      	bx	lr
20000f74:	40020000 	.word	0x40020000
20000f78:	21101a30 	.word	0x21101a30
20000f7c:	42218180 	.word	0x42218180

20000f80 <FSMC_IRQHandler>:
20000f80:	4668      	mov	r0, sp
20000f82:	f020 0107 	bic.w	r1, r0, #7
20000f86:	468d      	mov	sp, r1
20000f88:	b401      	push	{r0}
20000f8a:	bc01      	pop	{r0}
20000f8c:	4685      	mov	sp, r0
20000f8e:	4770      	bx	lr

20000f90 <TIM4_IRQHandler>:
20000f90:	2100      	movs	r1, #0
20000f92:	4b03      	ldr	r3, [pc, #12]	; (20000fa0 <TIM4_IRQHandler+0x10>)
20000f94:	4a03      	ldr	r2, [pc, #12]	; (20000fa4 <TIM4_IRQHandler+0x14>)
20000f96:	8219      	strh	r1, [r3, #16]
20000f98:	6813      	ldr	r3, [r2, #0]
20000f9a:	3301      	adds	r3, #1
20000f9c:	6013      	str	r3, [r2, #0]
20000f9e:	4770      	bx	lr
20000fa0:	40000800 	.word	0x40000800
20000fa4:	20001b04 	.word	0x20001b04

20000fa8 <ADC1_2_IRQHandler>:
20000fa8:	4668      	mov	r0, sp
20000faa:	f020 0107 	bic.w	r1, r0, #7
20000fae:	468d      	mov	sp, r1
20000fb0:	e7fe      	b.n	20000fb0 <ADC1_2_IRQHandler+0x8>
20000fb2:	bf00      	nop

20000fb4 <tr_pen_color>:
20000fb4:	b510      	push	{r4, lr}
20000fb6:	4604      	mov	r4, r0
20000fb8:	201b      	movs	r0, #27
20000fba:	f000 f83b 	bl	20001034 <UaPutC>
20000fbe:	205b      	movs	r0, #91	; 0x5b
20000fc0:	f000 f838 	bl	20001034 <UaPutC>
20000fc4:	2033      	movs	r0, #51	; 0x33
20000fc6:	f000 f835 	bl	20001034 <UaPutC>
20000fca:	f104 0030 	add.w	r0, r4, #48	; 0x30
20000fce:	b2c0      	uxtb	r0, r0
20000fd0:	f000 f830 	bl	20001034 <UaPutC>
20000fd4:	e8bd 4010 	ldmia.w	sp!, {r4, lr}
20000fd8:	206d      	movs	r0, #109	; 0x6d
20000fda:	f000 b82b 	b.w	20001034 <UaPutC>
20000fde:	bf00      	nop

20000fe0 <tr_locate>:
20000fe0:	b538      	push	{r3, r4, r5, lr}
20000fe2:	4605      	mov	r5, r0
20000fe4:	460c      	mov	r4, r1
20000fe6:	4808      	ldr	r0, [pc, #32]	; (20001008 <tr_locate+0x28>)
20000fe8:	f000 f840 	bl	2000106c <UaPutS>
20000fec:	4628      	mov	r0, r5
20000fee:	f000 fa9d 	bl	2000152c <uint2uart>
20000ff2:	203b      	movs	r0, #59	; 0x3b
20000ff4:	f000 f81e 	bl	20001034 <UaPutC>
20000ff8:	4620      	mov	r0, r4
20000ffa:	f000 fa97 	bl	2000152c <uint2uart>
20000ffe:	e8bd 4038 	ldmia.w	sp!, {r3, r4, r5, lr}
20001002:	2048      	movs	r0, #72	; 0x48
20001004:	f000 b816 	b.w	20001034 <UaPutC>
20001008:	20001a20 	.word	0x20001a20

2000100c <UART1_putc>:
2000100c:	4a03      	ldr	r2, [pc, #12]	; (2000101c <UART1_putc+0x10>)
2000100e:	8813      	ldrh	r3, [r2, #0]
20001010:	065b      	lsls	r3, r3, #25
20001012:	d5fc      	bpl.n	2000100e <UART1_putc+0x2>
20001014:	b280      	uxth	r0, r0
20001016:	8090      	strh	r0, [r2, #4]
20001018:	4770      	bx	lr
2000101a:	bf00      	nop
2000101c:	40013800 	.word	0x40013800

20001020 <UART2_putc>:
20001020:	4a03      	ldr	r2, [pc, #12]	; (20001030 <UART2_putc+0x10>)
20001022:	8813      	ldrh	r3, [r2, #0]
20001024:	065b      	lsls	r3, r3, #25
20001026:	d5fc      	bpl.n	20001022 <UART2_putc+0x2>
20001028:	b280      	uxth	r0, r0
2000102a:	8090      	strh	r0, [r2, #4]
2000102c:	4770      	bx	lr
2000102e:	bf00      	nop
20001030:	40004400 	.word	0x40004400

20001034 <UaPutC>:
20001034:	4b01      	ldr	r3, [pc, #4]	; (2000103c <UaPutC+0x8>)
20001036:	681b      	ldr	r3, [r3, #0]
20001038:	4718      	bx	r3
2000103a:	bf00      	nop
2000103c:	20001af0 	.word	0x20001af0

20001040 <reverse>:
20001040:	b570      	push	{r4, r5, r6, lr}
20001042:	4604      	mov	r4, r0
20001044:	f000 fbce 	bl	200017e4 <strlen>
20001048:	1e43      	subs	r3, r0, #1
2000104a:	2b00      	cmp	r3, #0
2000104c:	dd0d      	ble.n	2000106a <reverse+0x2a>
2000104e:	2300      	movs	r3, #0
20001050:	1e65      	subs	r5, r4, #1
20001052:	1821      	adds	r1, r4, r0
20001054:	3301      	adds	r3, #1
20001056:	43da      	mvns	r2, r3
20001058:	f815 4f01 	ldrb.w	r4, [r5, #1]!
2000105c:	f811 6d01 	ldrb.w	r6, [r1, #-1]!
20001060:	4402      	add	r2, r0
20001062:	4293      	cmp	r3, r2
20001064:	702e      	strb	r6, [r5, #0]
20001066:	700c      	strb	r4, [r1, #0]
20001068:	dbf4      	blt.n	20001054 <reverse+0x14>
2000106a:	bd70      	pop	{r4, r5, r6, pc}

2000106c <UaPutS>:
2000106c:	b538      	push	{r3, r4, r5, lr}
2000106e:	4604      	mov	r4, r0
20001070:	7800      	ldrb	r0, [r0, #0]
20001072:	b130      	cbz	r0, 20001082 <UaPutS+0x16>
20001074:	4d03      	ldr	r5, [pc, #12]	; (20001084 <UaPutS+0x18>)
20001076:	682b      	ldr	r3, [r5, #0]
20001078:	4798      	blx	r3
2000107a:	f814 0f01 	ldrb.w	r0, [r4, #1]!
2000107e:	2800      	cmp	r0, #0
20001080:	d1f9      	bne.n	20001076 <UaPutS+0xa>
20001082:	bd38      	pop	{r3, r4, r5, pc}
20001084:	20001af0 	.word	0x20001af0

20001088 <UART_getChar>:
20001088:	4a0a      	ldr	r2, [pc, #40]	; (200010b4 <UART_getChar+0x2c>)
2000108a:	8813      	ldrh	r3, [r2, #0]
2000108c:	8891      	ldrh	r1, [r2, #4]
2000108e:	b29b      	uxth	r3, r3
20001090:	b289      	uxth	r1, r1
20001092:	b169      	cbz	r1, 200010b0 <UART_getChar+0x28>
20001094:	b2db      	uxtb	r3, r3
20001096:	18d1      	adds	r1, r2, r3
20001098:	7989      	ldrb	r1, [r1, #6]
2000109a:	3301      	adds	r3, #1
2000109c:	f003 030f 	and.w	r3, r3, #15
200010a0:	7001      	strb	r1, [r0, #0]
200010a2:	8013      	strh	r3, [r2, #0]
200010a4:	b672      	cpsid	i
200010a6:	8893      	ldrh	r3, [r2, #4]
200010a8:	3b01      	subs	r3, #1
200010aa:	b29b      	uxth	r3, r3
200010ac:	8093      	strh	r3, [r2, #4]
200010ae:	b662      	cpsie	i
200010b0:	4770      	bx	lr
200010b2:	bf00      	nop
200010b4:	20001a60 	.word	0x20001a60

200010b8 <UART_getStr>:
200010b8:	4a13      	ldr	r2, [pc, #76]	; (20001108 <UART_getStr+0x50>)
200010ba:	b430      	push	{r4, r5}
200010bc:	8814      	ldrh	r4, [r2, #0]
200010be:	b2a4      	uxth	r4, r4
200010c0:	8893      	ldrh	r3, [r2, #4]
200010c2:	1c61      	adds	r1, r4, #1
200010c4:	b29b      	uxth	r3, r3
200010c6:	2b00      	cmp	r3, #0
200010c8:	d0fa      	beq.n	200010c0 <UART_getStr+0x8>
200010ca:	4605      	mov	r5, r0
200010cc:	8813      	ldrh	r3, [r2, #0]
200010ce:	b28c      	uxth	r4, r1
200010d0:	4413      	add	r3, r2
200010d2:	7999      	ldrb	r1, [r3, #6]
200010d4:	f004 030f 	and.w	r3, r4, #15
200010d8:	b2c9      	uxtb	r1, r1
200010da:	f805 1b01 	strb.w	r1, [r5], #1
200010de:	8013      	strh	r3, [r2, #0]
200010e0:	b672      	cpsid	i
200010e2:	8893      	ldrh	r3, [r2, #4]
200010e4:	3b01      	subs	r3, #1
200010e6:	b29b      	uxth	r3, r3
200010e8:	8093      	strh	r3, [r2, #4]
200010ea:	b662      	cpsie	i
200010ec:	290d      	cmp	r1, #13
200010ee:	d006      	beq.n	200010fe <UART_getStr+0x46>
200010f0:	8893      	ldrh	r3, [r2, #4]
200010f2:	4628      	mov	r0, r5
200010f4:	b29b      	uxth	r3, r3
200010f6:	1c61      	adds	r1, r4, #1
200010f8:	2b00      	cmp	r3, #0
200010fa:	d1e6      	bne.n	200010ca <UART_getStr+0x12>
200010fc:	e7e0      	b.n	200010c0 <UART_getStr+0x8>
200010fe:	2300      	movs	r3, #0
20001100:	f805 3c01 	strb.w	r3, [r5, #-1]
20001104:	bc30      	pop	{r4, r5}
20001106:	4770      	bx	lr
20001108:	20001a60 	.word	0x20001a60

2000110c <uint2str>:
2000110c:	2200      	movs	r2, #0
2000110e:	b538      	push	{r3, r4, r5, lr}
20001110:	460d      	mov	r5, r1
20001112:	490a      	ldr	r1, [pc, #40]	; (2000113c <uint2str+0x30>)
20001114:	fba1 4300 	umull	r4, r3, r1, r0
20001118:	08db      	lsrs	r3, r3, #3
2000111a:	eb03 0483 	add.w	r4, r3, r3, lsl #2
2000111e:	eba0 0044 	sub.w	r0, r0, r4, lsl #1
20001122:	3030      	adds	r0, #48	; 0x30
20001124:	1c54      	adds	r4, r2, #1
20001126:	54a8      	strb	r0, [r5, r2]
20001128:	4618      	mov	r0, r3
2000112a:	b2e2      	uxtb	r2, r4
2000112c:	2b00      	cmp	r3, #0
2000112e:	d1f1      	bne.n	20001114 <uint2str+0x8>
20001130:	4628      	mov	r0, r5
20001132:	54ab      	strb	r3, [r5, r2]
20001134:	f7ff ff84 	bl	20001040 <reverse>
20001138:	4628      	mov	r0, r5
2000113a:	bd38      	pop	{r3, r4, r5, pc}
2000113c:	cccccccd 	.word	0xcccccccd

20001140 <sint2str>:
20001140:	b5f8      	push	{r3, r4, r5, r6, r7, lr}
20001142:	ea80 73e0 	eor.w	r3, r0, r0, asr #31
20001146:	460e      	mov	r6, r1
20001148:	eba3 73e0 	sub.w	r3, r3, r0, asr #31
2000114c:	2500      	movs	r5, #0
2000114e:	4f0f      	ldr	r7, [pc, #60]	; (2000118c <sint2str+0x4c>)
20001150:	e000      	b.n	20001154 <sint2str+0x14>
20001152:	4615      	mov	r5, r2
20001154:	fba7 1203 	umull	r1, r2, r7, r3
20001158:	08d2      	lsrs	r2, r2, #3
2000115a:	eb02 0182 	add.w	r1, r2, r2, lsl #2
2000115e:	eba3 0341 	sub.w	r3, r3, r1, lsl #1
20001162:	3330      	adds	r3, #48	; 0x30
20001164:	5573      	strb	r3, [r6, r5]
20001166:	4613      	mov	r3, r2
20001168:	1c6c      	adds	r4, r5, #1
2000116a:	b2e2      	uxtb	r2, r4
2000116c:	2b00      	cmp	r3, #0
2000116e:	d1f0      	bne.n	20001152 <sint2str+0x12>
20001170:	2800      	cmp	r0, #0
20001172:	bfb4      	ite	lt
20001174:	232d      	movlt	r3, #45	; 0x2d
20001176:	2320      	movge	r3, #32
20001178:	54b3      	strb	r3, [r6, r2]
2000117a:	2300      	movs	r3, #0
2000117c:	3502      	adds	r5, #2
2000117e:	b2ed      	uxtb	r5, r5
20001180:	4630      	mov	r0, r6
20001182:	5573      	strb	r3, [r6, r5]
20001184:	f7ff ff5c 	bl	20001040 <reverse>
20001188:	4630      	mov	r0, r6
2000118a:	bdf8      	pop	{r3, r4, r5, r6, r7, pc}
2000118c:	cccccccd 	.word	0xcccccccd

20001190 <unt2str>:
20001190:	b5f8      	push	{r3, r4, r5, r6, r7, lr}
20001192:	460d      	mov	r5, r1
20001194:	2a00      	cmp	r2, #0
20001196:	d048      	beq.n	2000122a <unt2str+0x9a>
20001198:	2100      	movs	r1, #0
2000119a:	2301      	movs	r3, #1
2000119c:	3101      	adds	r1, #1
2000119e:	b2cc      	uxtb	r4, r1
200011a0:	eb03 0383 	add.w	r3, r3, r3, lsl #2
200011a4:	4294      	cmp	r4, r2
200011a6:	ea4f 0343 	mov.w	r3, r3, lsl #1
200011aa:	d3f7      	bcc.n	2000119c <unt2str+0xc>
200011ac:	4298      	cmp	r0, r3
200011ae:	d22b      	bcs.n	20001208 <unt2str+0x78>
200011b0:	2300      	movs	r3, #0
200011b2:	4f21      	ldr	r7, [pc, #132]	; (20001238 <unt2str+0xa8>)
200011b4:	e00c      	b.n	200011d0 <unt2str+0x40>
200011b6:	fba7 2400 	umull	r2, r4, r7, r0
200011ba:	08e4      	lsrs	r4, r4, #3
200011bc:	eb04 0284 	add.w	r2, r4, r4, lsl #2
200011c0:	eba0 0042 	sub.w	r0, r0, r2, lsl #1
200011c4:	3030      	adds	r0, #48	; 0x30
200011c6:	54e8      	strb	r0, [r5, r3]
200011c8:	b2f2      	uxtb	r2, r6
200011ca:	4620      	mov	r0, r4
200011cc:	b2cb      	uxtb	r3, r1
200011ce:	b194      	cbz	r4, 200011f6 <unt2str+0x66>
200011d0:	1c59      	adds	r1, r3, #1
200011d2:	1e56      	subs	r6, r2, #1
200011d4:	2800      	cmp	r0, #0
200011d6:	d1ee      	bne.n	200011b6 <unt2str+0x26>
200011d8:	b93b      	cbnz	r3, 200011ea <unt2str+0x5a>
200011da:	2330      	movs	r3, #48	; 0x30
200011dc:	3a01      	subs	r2, #1
200011de:	f012 02ff 	ands.w	r2, r2, #255	; 0xff
200011e2:	702b      	strb	r3, [r5, #0]
200011e4:	f04f 0301 	mov.w	r3, #1
200011e8:	d007      	beq.n	200011fa <unt2str+0x6a>
200011ea:	2030      	movs	r0, #48	; 0x30
200011ec:	3a01      	subs	r2, #1
200011ee:	1c59      	adds	r1, r3, #1
200011f0:	54e8      	strb	r0, [r5, r3]
200011f2:	b2d2      	uxtb	r2, r2
200011f4:	b2cb      	uxtb	r3, r1
200011f6:	2a00      	cmp	r2, #0
200011f8:	d1ee      	bne.n	200011d8 <unt2str+0x48>
200011fa:	2200      	movs	r2, #0
200011fc:	4628      	mov	r0, r5
200011fe:	54ea      	strb	r2, [r5, r3]
20001200:	f7ff ff1e 	bl	20001040 <reverse>
20001204:	4628      	mov	r0, r5
20001206:	bdf8      	pop	{r3, r4, r5, r6, r7, pc}
20001208:	2020      	movs	r0, #32
2000120a:	1e51      	subs	r1, r2, #1
2000120c:	b2cb      	uxtb	r3, r1
2000120e:	1c69      	adds	r1, r5, #1
20001210:	4419      	add	r1, r3
20001212:	7028      	strb	r0, [r5, #0]
20001214:	462b      	mov	r3, r5
20001216:	2078      	movs	r0, #120	; 0x78
20001218:	f803 0f01 	strb.w	r0, [r3, #1]!
2000121c:	4299      	cmp	r1, r3
2000121e:	d1fb      	bne.n	20001218 <unt2str+0x88>
20001220:	3201      	adds	r2, #1
20001222:	2300      	movs	r3, #0
20001224:	54ab      	strb	r3, [r5, r2]
20001226:	4628      	mov	r0, r5
20001228:	bdf8      	pop	{r3, r4, r5, r6, r7, pc}
2000122a:	2800      	cmp	r0, #0
2000122c:	d0d5      	beq.n	200011da <unt2str+0x4a>
2000122e:	2320      	movs	r3, #32
20001230:	2201      	movs	r2, #1
20001232:	702b      	strb	r3, [r5, #0]
20001234:	e7f5      	b.n	20001222 <unt2str+0x92>
20001236:	bf00      	nop
20001238:	cccccccd 	.word	0xcccccccd

2000123c <int2str>:
2000123c:	2800      	cmp	r0, #0
2000123e:	e92d 41f0 	stmdb	sp!, {r4, r5, r6, r7, r8, lr}
20001242:	460e      	mov	r6, r1
20001244:	db68      	blt.n	20001318 <int2str+0xdc>
20001246:	2100      	movs	r1, #0
20001248:	f8df c0f4 	ldr.w	ip, [pc, #244]	; 20001340 <int2str+0x104>
2000124c:	f88c 1000 	strb.w	r1, [ip]
20001250:	b1f2      	cbz	r2, 20001290 <int2str+0x54>
20001252:	2400      	movs	r4, #0
20001254:	2101      	movs	r1, #1
20001256:	3401      	adds	r4, #1
20001258:	b2e5      	uxtb	r5, r4
2000125a:	eb01 0181 	add.w	r1, r1, r1, lsl #2
2000125e:	42aa      	cmp	r2, r5
20001260:	ea4f 0141 	mov.w	r1, r1, lsl #1
20001264:	d8f7      	bhi.n	20001256 <int2str+0x1a>
20001266:	4281      	cmp	r1, r0
20001268:	d814      	bhi.n	20001294 <int2str+0x58>
2000126a:	232d      	movs	r3, #45	; 0x2d
2000126c:	2a01      	cmp	r2, #1
2000126e:	7033      	strb	r3, [r6, #0]
20001270:	d962      	bls.n	20001338 <int2str+0xfc>
20001272:	4633      	mov	r3, r6
20001274:	2078      	movs	r0, #120	; 0x78
20001276:	1e91      	subs	r1, r2, #2
20001278:	b2c9      	uxtb	r1, r1
2000127a:	1c74      	adds	r4, r6, #1
2000127c:	4421      	add	r1, r4
2000127e:	f803 0f01 	strb.w	r0, [r3, #1]!
20001282:	4299      	cmp	r1, r3
20001284:	d1fb      	bne.n	2000127e <int2str+0x42>
20001286:	2300      	movs	r3, #0
20001288:	54b3      	strb	r3, [r6, r2]
2000128a:	4630      	mov	r0, r6
2000128c:	e8bd 81f0 	ldmia.w	sp!, {r4, r5, r6, r7, r8, pc}
20001290:	2800      	cmp	r0, #0
20001292:	d149      	bne.n	20001328 <int2str+0xec>
20001294:	429a      	cmp	r2, r3
20001296:	d3e8      	bcc.n	2000126a <int2str+0x2e>
20001298:	2500      	movs	r5, #0
2000129a:	f04f 0e2e 	mov.w	lr, #46	; 0x2e
2000129e:	4f27      	ldr	r7, [pc, #156]	; (2000133c <int2str+0x100>)
200012a0:	429d      	cmp	r5, r3
200012a2:	bf8c      	ite	hi
200012a4:	2420      	movhi	r4, #32
200012a6:	2430      	movls	r4, #48	; 0x30
200012a8:	2800      	cmp	r0, #0
200012aa:	dd33      	ble.n	20001314 <int2str+0xd8>
200012ac:	fb87 1400 	smull	r1, r4, r7, r0
200012b0:	17c1      	asrs	r1, r0, #31
200012b2:	ebc1 04a4 	rsb	r4, r1, r4, asr #2
200012b6:	eb04 0484 	add.w	r4, r4, r4, lsl #2
200012ba:	eba0 0444 	sub.w	r4, r0, r4, lsl #1
200012be:	3430      	adds	r4, #48	; 0x30
200012c0:	b2e4      	uxtb	r4, r4
200012c2:	fb87 8000 	smull	r8, r0, r7, r0
200012c6:	f105 0801 	add.w	r8, r5, #1
200012ca:	fa5f f888 	uxtb.w	r8, r8
200012ce:	3a01      	subs	r2, #1
200012d0:	4543      	cmp	r3, r8
200012d2:	ebc1 00a0 	rsb	r0, r1, r0, asr #2
200012d6:	5574      	strb	r4, [r6, r5]
200012d8:	b2d2      	uxtb	r2, r2
200012da:	d104      	bne.n	200012e6 <int2str+0xaa>
200012dc:	3502      	adds	r5, #2
200012de:	fa5f f885 	uxtb.w	r8, r5
200012e2:	f806 e003 	strb.w	lr, [r6, r3]
200012e6:	2800      	cmp	r0, #0
200012e8:	dd01      	ble.n	200012ee <int2str+0xb2>
200012ea:	4645      	mov	r5, r8
200012ec:	e7d8      	b.n	200012a0 <int2str+0x64>
200012ee:	2a00      	cmp	r2, #0
200012f0:	d1fb      	bne.n	200012ea <int2str+0xae>
200012f2:	f89c 2000 	ldrb.w	r2, [ip]
200012f6:	f108 0301 	add.w	r3, r8, #1
200012fa:	b2db      	uxtb	r3, r3
200012fc:	b9c2      	cbnz	r2, 20001330 <int2str+0xf4>
200012fe:	2220      	movs	r2, #32
20001300:	f806 2008 	strb.w	r2, [r6, r8]
20001304:	2200      	movs	r2, #0
20001306:	4630      	mov	r0, r6
20001308:	54f2      	strb	r2, [r6, r3]
2000130a:	f7ff fe99 	bl	20001040 <reverse>
2000130e:	4630      	mov	r0, r6
20001310:	e8bd 81f0 	ldmia.w	sp!, {r4, r5, r6, r7, r8, pc}
20001314:	17c1      	asrs	r1, r0, #31
20001316:	e7d4      	b.n	200012c2 <int2str+0x86>
20001318:	2101      	movs	r1, #1
2000131a:	f8df c024 	ldr.w	ip, [pc, #36]	; 20001340 <int2str+0x104>
2000131e:	4240      	negs	r0, r0
20001320:	f88c 1000 	strb.w	r1, [ip]
20001324:	2a00      	cmp	r2, #0
20001326:	d194      	bne.n	20001252 <int2str+0x16>
20001328:	232d      	movs	r3, #45	; 0x2d
2000132a:	2201      	movs	r2, #1
2000132c:	7033      	strb	r3, [r6, #0]
2000132e:	e7aa      	b.n	20001286 <int2str+0x4a>
20001330:	222d      	movs	r2, #45	; 0x2d
20001332:	f806 2008 	strb.w	r2, [r6, r8]
20001336:	e7e5      	b.n	20001304 <int2str+0xc8>
20001338:	2201      	movs	r2, #1
2000133a:	e7a4      	b.n	20001286 <int2str+0x4a>
2000133c:	66666667 	.word	0x66666667
20001340:	20001a8e 	.word	0x20001a8e

20001344 <int2str_z>:
20001344:	2800      	cmp	r0, #0
20001346:	e92d 41f0 	stmdb	sp!, {r4, r5, r6, r7, r8, lr}
2000134a:	460e      	mov	r6, r1
2000134c:	db68      	blt.n	20001420 <int2str_z+0xdc>
2000134e:	2100      	movs	r1, #0
20001350:	f8df c0f4 	ldr.w	ip, [pc, #244]	; 20001448 <int2str_z+0x104>
20001354:	f88c 1000 	strb.w	r1, [ip]
20001358:	b1f2      	cbz	r2, 20001398 <int2str_z+0x54>
2000135a:	2400      	movs	r4, #0
2000135c:	2101      	movs	r1, #1
2000135e:	3401      	adds	r4, #1
20001360:	b2e5      	uxtb	r5, r4
20001362:	eb01 0181 	add.w	r1, r1, r1, lsl #2
20001366:	42aa      	cmp	r2, r5
20001368:	ea4f 0141 	mov.w	r1, r1, lsl #1
2000136c:	d8f7      	bhi.n	2000135e <int2str_z+0x1a>
2000136e:	4281      	cmp	r1, r0
20001370:	d814      	bhi.n	2000139c <int2str_z+0x58>
20001372:	232d      	movs	r3, #45	; 0x2d
20001374:	2a01      	cmp	r2, #1
20001376:	7033      	strb	r3, [r6, #0]
20001378:	d962      	bls.n	20001440 <int2str_z+0xfc>
2000137a:	4633      	mov	r3, r6
2000137c:	2078      	movs	r0, #120	; 0x78
2000137e:	1e91      	subs	r1, r2, #2
20001380:	b2c9      	uxtb	r1, r1
20001382:	1c74      	adds	r4, r6, #1
20001384:	4421      	add	r1, r4
20001386:	f803 0f01 	strb.w	r0, [r3, #1]!
2000138a:	4299      	cmp	r1, r3
2000138c:	d1fb      	bne.n	20001386 <int2str_z+0x42>
2000138e:	2300      	movs	r3, #0
20001390:	54b3      	strb	r3, [r6, r2]
20001392:	4630      	mov	r0, r6
20001394:	e8bd 81f0 	ldmia.w	sp!, {r4, r5, r6, r7, r8, pc}
20001398:	2800      	cmp	r0, #0
2000139a:	d149      	bne.n	20001430 <int2str_z+0xec>
2000139c:	429a      	cmp	r2, r3
2000139e:	d3e8      	bcc.n	20001372 <int2str_z+0x2e>
200013a0:	2500      	movs	r5, #0
200013a2:	f04f 0e2e 	mov.w	lr, #46	; 0x2e
200013a6:	4f27      	ldr	r7, [pc, #156]	; (20001444 <int2str_z+0x100>)
200013a8:	429d      	cmp	r5, r3
200013aa:	bf8c      	ite	hi
200013ac:	2420      	movhi	r4, #32
200013ae:	2430      	movls	r4, #48	; 0x30
200013b0:	2800      	cmp	r0, #0
200013b2:	dd33      	ble.n	2000141c <int2str_z+0xd8>
200013b4:	fb87 1400 	smull	r1, r4, r7, r0
200013b8:	17c1      	asrs	r1, r0, #31
200013ba:	ebc1 04a4 	rsb	r4, r1, r4, asr #2
200013be:	eb04 0484 	add.w	r4, r4, r4, lsl #2
200013c2:	eba0 0444 	sub.w	r4, r0, r4, lsl #1
200013c6:	3430      	adds	r4, #48	; 0x30
200013c8:	b2e4      	uxtb	r4, r4
200013ca:	fb87 8000 	smull	r8, r0, r7, r0
200013ce:	f105 0801 	add.w	r8, r5, #1
200013d2:	fa5f f888 	uxtb.w	r8, r8
200013d6:	3a01      	subs	r2, #1
200013d8:	4543      	cmp	r3, r8
200013da:	ebc1 00a0 	rsb	r0, r1, r0, asr #2
200013de:	5574      	strb	r4, [r6, r5]
200013e0:	b2d2      	uxtb	r2, r2
200013e2:	d104      	bne.n	200013ee <int2str_z+0xaa>
200013e4:	3502      	adds	r5, #2
200013e6:	fa5f f885 	uxtb.w	r8, r5
200013ea:	f806 e003 	strb.w	lr, [r6, r3]
200013ee:	2800      	cmp	r0, #0
200013f0:	dd01      	ble.n	200013f6 <int2str_z+0xb2>
200013f2:	4645      	mov	r5, r8
200013f4:	e7d8      	b.n	200013a8 <int2str_z+0x64>
200013f6:	2a00      	cmp	r2, #0
200013f8:	d1fb      	bne.n	200013f2 <int2str_z+0xae>
200013fa:	f89c 2000 	ldrb.w	r2, [ip]
200013fe:	f108 0301 	add.w	r3, r8, #1
20001402:	b2db      	uxtb	r3, r3
20001404:	b9c2      	cbnz	r2, 20001438 <int2str_z+0xf4>
20001406:	2220      	movs	r2, #32
20001408:	f806 2008 	strb.w	r2, [r6, r8]
2000140c:	2200      	movs	r2, #0
2000140e:	4630      	mov	r0, r6
20001410:	54f2      	strb	r2, [r6, r3]
20001412:	f7ff fe15 	bl	20001040 <reverse>
20001416:	4630      	mov	r0, r6
20001418:	e8bd 81f0 	ldmia.w	sp!, {r4, r5, r6, r7, r8, pc}
2000141c:	17c1      	asrs	r1, r0, #31
2000141e:	e7d4      	b.n	200013ca <int2str_z+0x86>
20001420:	2101      	movs	r1, #1
20001422:	f8df c024 	ldr.w	ip, [pc, #36]	; 20001448 <int2str_z+0x104>
20001426:	4240      	negs	r0, r0
20001428:	f88c 1000 	strb.w	r1, [ip]
2000142c:	2a00      	cmp	r2, #0
2000142e:	d194      	bne.n	2000135a <int2str_z+0x16>
20001430:	232d      	movs	r3, #45	; 0x2d
20001432:	2201      	movs	r2, #1
20001434:	7033      	strb	r3, [r6, #0]
20001436:	e7aa      	b.n	2000138e <int2str_z+0x4a>
20001438:	222d      	movs	r2, #45	; 0x2d
2000143a:	f806 2008 	strb.w	r2, [r6, r8]
2000143e:	e7e5      	b.n	2000140c <int2str_z+0xc8>
20001440:	2201      	movs	r2, #1
20001442:	e7a4      	b.n	2000138e <int2str_z+0x4a>
20001444:	66666667 	.word	0x66666667
20001448:	20001a8f 	.word	0x20001a8f

2000144c <str2int>:
2000144c:	b5f8      	push	{r3, r4, r5, r6, r7, lr}
2000144e:	4604      	mov	r4, r0
20001450:	f7ff fdf6 	bl	20001040 <reverse>
20001454:	4620      	mov	r0, r4
20001456:	f000 f9c5 	bl	200017e4 <strlen>
2000145a:	b1d8      	cbz	r0, 20001494 <str2int+0x48>
2000145c:	2201      	movs	r2, #1
2000145e:	1e63      	subs	r3, r4, #1
20001460:	f04f 0c00 	mov.w	ip, #0
20001464:	4696      	mov	lr, r2
20001466:	181f      	adds	r7, r3, r0
20001468:	e004      	b.n	20001474 <str2int+0x28>
2000146a:	fb02 cc04 	mla	ip, r2, r4, ip
2000146e:	0072      	lsls	r2, r6, #1
20001470:	42bb      	cmp	r3, r7
20001472:	d014      	beq.n	2000149e <str2int+0x52>
20001474:	f813 1f01 	ldrb.w	r1, [r3, #1]!
20001478:	eb02 0682 	add.w	r6, r2, r2, lsl #2
2000147c:	f1a1 0430 	sub.w	r4, r1, #48	; 0x30
20001480:	b2e5      	uxtb	r5, r4
20001482:	2d09      	cmp	r5, #9
20001484:	d9f1      	bls.n	2000146a <str2int+0x1e>
20001486:	292d      	cmp	r1, #45	; 0x2d
20001488:	d005      	beq.n	20001496 <str2int+0x4a>
2000148a:	292b      	cmp	r1, #43	; 0x2b
2000148c:	d0f0      	beq.n	20001470 <str2int+0x24>
2000148e:	2964      	cmp	r1, #100	; 0x64
20001490:	d0ee      	beq.n	20001470 <str2int+0x24>
20001492:	2000      	movs	r0, #0
20001494:	bdf8      	pop	{r3, r4, r5, r6, r7, pc}
20001496:	42bb      	cmp	r3, r7
20001498:	f04f 3eff 	mov.w	lr, #4294967295
2000149c:	d1ea      	bne.n	20001474 <str2int+0x28>
2000149e:	fb0c f00e 	mul.w	r0, ip, lr
200014a2:	bdf8      	pop	{r3, r4, r5, r6, r7, pc}

200014a4 <UART_getDec>:
200014a4:	b5f0      	push	{r4, r5, r6, r7, lr}
200014a6:	2400      	movs	r4, #0
200014a8:	4621      	mov	r1, r4
200014aa:	4a15      	ldr	r2, [pc, #84]	; (20001500 <UART_getDec+0x5c>)
200014ac:	b085      	sub	sp, #20
200014ae:	8813      	ldrh	r3, [r2, #0]
200014b0:	4606      	mov	r6, r0
200014b2:	ad01      	add	r5, sp, #4
200014b4:	b298      	uxth	r0, r3
200014b6:	8893      	ldrh	r3, [r2, #4]
200014b8:	f100 0c01 	add.w	ip, r0, #1
200014bc:	b29b      	uxth	r3, r3
200014be:	1c6f      	adds	r7, r5, #1
200014c0:	b953      	cbnz	r3, 200014d8 <UART_getDec+0x34>
200014c2:	290d      	cmp	r1, #13
200014c4:	d1f7      	bne.n	200014b6 <UART_getDec+0x12>
200014c6:	f805 3c01 	strb.w	r3, [r5, #-1]
200014ca:	a801      	add	r0, sp, #4
200014cc:	f7ff ffbe 	bl	2000144c <str2int>
200014d0:	6030      	str	r0, [r6, #0]
200014d2:	4620      	mov	r0, r4
200014d4:	b005      	add	sp, #20
200014d6:	bdf0      	pop	{r4, r5, r6, r7, pc}
200014d8:	8813      	ldrh	r3, [r2, #0]
200014da:	fa1f f08c 	uxth.w	r0, ip
200014de:	4413      	add	r3, r2
200014e0:	7999      	ldrb	r1, [r3, #6]
200014e2:	f000 030f 	and.w	r3, r0, #15
200014e6:	b2c9      	uxtb	r1, r1
200014e8:	7029      	strb	r1, [r5, #0]
200014ea:	8013      	strh	r3, [r2, #0]
200014ec:	b672      	cpsid	i
200014ee:	8893      	ldrh	r3, [r2, #4]
200014f0:	3b01      	subs	r3, #1
200014f2:	b29b      	uxth	r3, r3
200014f4:	8093      	strh	r3, [r2, #4]
200014f6:	b662      	cpsie	i
200014f8:	3401      	adds	r4, #1
200014fa:	463d      	mov	r5, r7
200014fc:	b2e4      	uxtb	r4, r4
200014fe:	e7da      	b.n	200014b6 <UART_getDec+0x12>
20001500:	20001a60 	.word	0x20001a60

20001504 <sint2uart>:
20001504:	b530      	push	{r4, r5, lr}
20001506:	b085      	sub	sp, #20
20001508:	a901      	add	r1, sp, #4
2000150a:	f7ff fe19 	bl	20001140 <sint2str>
2000150e:	4604      	mov	r4, r0
20001510:	7800      	ldrb	r0, [r0, #0]
20001512:	b130      	cbz	r0, 20001522 <sint2uart+0x1e>
20001514:	4d04      	ldr	r5, [pc, #16]	; (20001528 <sint2uart+0x24>)
20001516:	682b      	ldr	r3, [r5, #0]
20001518:	4798      	blx	r3
2000151a:	f814 0f01 	ldrb.w	r0, [r4, #1]!
2000151e:	2800      	cmp	r0, #0
20001520:	d1f9      	bne.n	20001516 <sint2uart+0x12>
20001522:	b005      	add	sp, #20
20001524:	bd30      	pop	{r4, r5, pc}
20001526:	bf00      	nop
20001528:	20001af0 	.word	0x20001af0

2000152c <uint2uart>:
2000152c:	b530      	push	{r4, r5, lr}
2000152e:	b085      	sub	sp, #20
20001530:	a901      	add	r1, sp, #4
20001532:	f7ff fdeb 	bl	2000110c <uint2str>
20001536:	4604      	mov	r4, r0
20001538:	7800      	ldrb	r0, [r0, #0]
2000153a:	b130      	cbz	r0, 2000154a <uint2uart+0x1e>
2000153c:	4d04      	ldr	r5, [pc, #16]	; (20001550 <uint2uart+0x24>)
2000153e:	682b      	ldr	r3, [r5, #0]
20001540:	4798      	blx	r3
20001542:	f814 0f01 	ldrb.w	r0, [r4, #1]!
20001546:	2800      	cmp	r0, #0
20001548:	d1f9      	bne.n	2000153e <uint2uart+0x12>
2000154a:	b005      	add	sp, #20
2000154c:	bd30      	pop	{r4, r5, pc}
2000154e:	bf00      	nop
20001550:	20001af0 	.word	0x20001af0

20001554 <unt2uart>:
20001554:	b530      	push	{r4, r5, lr}
20001556:	b085      	sub	sp, #20
20001558:	460a      	mov	r2, r1
2000155a:	a901      	add	r1, sp, #4
2000155c:	f7ff fe18 	bl	20001190 <unt2str>
20001560:	4604      	mov	r4, r0
20001562:	7800      	ldrb	r0, [r0, #0]
20001564:	b130      	cbz	r0, 20001574 <unt2uart+0x20>
20001566:	4d04      	ldr	r5, [pc, #16]	; (20001578 <unt2uart+0x24>)
20001568:	682b      	ldr	r3, [r5, #0]
2000156a:	4798      	blx	r3
2000156c:	f814 0f01 	ldrb.w	r0, [r4, #1]!
20001570:	2800      	cmp	r0, #0
20001572:	d1f9      	bne.n	20001568 <unt2uart+0x14>
20001574:	b005      	add	sp, #20
20001576:	bd30      	pop	{r4, r5, pc}
20001578:	20001af0 	.word	0x20001af0

2000157c <int2uart>:
2000157c:	b530      	push	{r4, r5, lr}
2000157e:	b085      	sub	sp, #20
20001580:	4613      	mov	r3, r2
20001582:	460a      	mov	r2, r1
20001584:	a901      	add	r1, sp, #4
20001586:	f7ff fe59 	bl	2000123c <int2str>
2000158a:	4604      	mov	r4, r0
2000158c:	7800      	ldrb	r0, [r0, #0]
2000158e:	b130      	cbz	r0, 2000159e <int2uart+0x22>
20001590:	4d04      	ldr	r5, [pc, #16]	; (200015a4 <int2uart+0x28>)
20001592:	682b      	ldr	r3, [r5, #0]
20001594:	4798      	blx	r3
20001596:	f814 0f01 	ldrb.w	r0, [r4, #1]!
2000159a:	2800      	cmp	r0, #0
2000159c:	d1f9      	bne.n	20001592 <int2uart+0x16>
2000159e:	b005      	add	sp, #20
200015a0:	bd30      	pop	{r4, r5, pc}
200015a2:	bf00      	nop
200015a4:	20001af0 	.word	0x20001af0

200015a8 <int2uarz>:
200015a8:	b530      	push	{r4, r5, lr}
200015aa:	b085      	sub	sp, #20
200015ac:	4613      	mov	r3, r2
200015ae:	460a      	mov	r2, r1
200015b0:	a901      	add	r1, sp, #4
200015b2:	f7ff fec7 	bl	20001344 <int2str_z>
200015b6:	4604      	mov	r4, r0
200015b8:	7800      	ldrb	r0, [r0, #0]
200015ba:	b130      	cbz	r0, 200015ca <int2uarz+0x22>
200015bc:	4d04      	ldr	r5, [pc, #16]	; (200015d0 <int2uarz+0x28>)
200015be:	682b      	ldr	r3, [r5, #0]
200015c0:	4798      	blx	r3
200015c2:	f814 0f01 	ldrb.w	r0, [r4, #1]!
200015c6:	2800      	cmp	r0, #0
200015c8:	d1f9      	bne.n	200015be <int2uarz+0x16>
200015ca:	b005      	add	sp, #20
200015cc:	bd30      	pop	{r4, r5, pc}
200015ce:	bf00      	nop
200015d0:	20001af0 	.word	0x20001af0

200015d4 <USART1_IRQHandler>:
200015d4:	4b0e      	ldr	r3, [pc, #56]	; (20001610 <USART1_IRQHandler+0x3c>)
200015d6:	881a      	ldrh	r2, [r3, #0]
200015d8:	0692      	lsls	r2, r2, #26
200015da:	d50a      	bpl.n	200015f2 <USART1_IRQHandler+0x1e>
200015dc:	490d      	ldr	r1, [pc, #52]	; (20001614 <USART1_IRQHandler+0x40>)
200015de:	889b      	ldrh	r3, [r3, #4]
200015e0:	888a      	ldrh	r2, [r1, #4]
200015e2:	b29b      	uxth	r3, r3
200015e4:	b2d2      	uxtb	r2, r2
200015e6:	2a0f      	cmp	r2, #15
200015e8:	d904      	bls.n	200015f4 <USART1_IRQHandler+0x20>
200015ea:	b2db      	uxtb	r3, r3
200015ec:	4a08      	ldr	r2, [pc, #32]	; (20001610 <USART1_IRQHandler+0x3c>)
200015ee:	b29b      	uxth	r3, r3
200015f0:	8093      	strh	r3, [r2, #4]
200015f2:	4770      	bx	lr
200015f4:	3201      	adds	r2, #1
200015f6:	b2d2      	uxtb	r2, r2
200015f8:	808a      	strh	r2, [r1, #4]
200015fa:	884a      	ldrh	r2, [r1, #2]
200015fc:	b2db      	uxtb	r3, r3
200015fe:	b2d2      	uxtb	r2, r2
20001600:	1c50      	adds	r0, r2, #1
20001602:	f000 000f 	and.w	r0, r0, #15
20001606:	440a      	add	r2, r1
20001608:	7193      	strb	r3, [r2, #6]
2000160a:	8048      	strh	r0, [r1, #2]
2000160c:	e7ee      	b.n	200015ec <USART1_IRQHandler+0x18>
2000160e:	bf00      	nop
20001610:	40013800 	.word	0x40013800
20001614:	20001a60 	.word	0x20001a60

20001618 <USART2_IRQHandler>:
20001618:	4b0e      	ldr	r3, [pc, #56]	; (20001654 <USART2_IRQHandler+0x3c>)
2000161a:	881a      	ldrh	r2, [r3, #0]
2000161c:	0692      	lsls	r2, r2, #26
2000161e:	d50a      	bpl.n	20001636 <USART2_IRQHandler+0x1e>
20001620:	490d      	ldr	r1, [pc, #52]	; (20001658 <USART2_IRQHandler+0x40>)
20001622:	889b      	ldrh	r3, [r3, #4]
20001624:	888a      	ldrh	r2, [r1, #4]
20001626:	b29b      	uxth	r3, r3
20001628:	b292      	uxth	r2, r2
2000162a:	2a0f      	cmp	r2, #15
2000162c:	d904      	bls.n	20001638 <USART2_IRQHandler+0x20>
2000162e:	b2db      	uxtb	r3, r3
20001630:	4a08      	ldr	r2, [pc, #32]	; (20001654 <USART2_IRQHandler+0x3c>)
20001632:	b29b      	uxth	r3, r3
20001634:	8093      	strh	r3, [r2, #4]
20001636:	4770      	bx	lr
20001638:	3201      	adds	r2, #1
2000163a:	b292      	uxth	r2, r2
2000163c:	808a      	strh	r2, [r1, #4]
2000163e:	884a      	ldrh	r2, [r1, #2]
20001640:	b2db      	uxtb	r3, r3
20001642:	b292      	uxth	r2, r2
20001644:	1c50      	adds	r0, r2, #1
20001646:	f000 000f 	and.w	r0, r0, #15
2000164a:	440a      	add	r2, r1
2000164c:	7193      	strb	r3, [r2, #6]
2000164e:	8048      	strh	r0, [r1, #2]
20001650:	e7ee      	b.n	20001630 <USART2_IRQHandler+0x18>
20001652:	bf00      	nop
20001654:	40004400 	.word	0x40004400
20001658:	20001a78 	.word	0x20001a78

2000165c <BkpRegInit>:
2000165c:	2001      	movs	r0, #1
2000165e:	4a04      	ldr	r2, [pc, #16]	; (20001670 <BkpRegInit+0x14>)
20001660:	4904      	ldr	r1, [pc, #16]	; (20001674 <BkpRegInit+0x18>)
20001662:	69d3      	ldr	r3, [r2, #28]
20001664:	f043 53c0 	orr.w	r3, r3, #402653184	; 0x18000000
20001668:	61d3      	str	r3, [r2, #28]
2000166a:	6008      	str	r0, [r1, #0]
2000166c:	4770      	bx	lr
2000166e:	bf00      	nop
20001670:	40021000 	.word	0x40021000
20001674:	420e0020 	.word	0x420e0020

20001678 <i2c1r_init>:
20001678:	b430      	push	{r4, r5}
2000167a:	2024      	movs	r0, #36	; 0x24
2000167c:	2525      	movs	r5, #37	; 0x25
2000167e:	f248 045a 	movw	r4, #32858	; 0x805a
20001682:	4911      	ldr	r1, [pc, #68]	; (200016c8 <i2c1r_init+0x50>)
20001684:	4a11      	ldr	r2, [pc, #68]	; (200016cc <i2c1r_init+0x54>)
20001686:	684b      	ldr	r3, [r1, #4]
20001688:	f043 0302 	orr.w	r3, r3, #2
2000168c:	604b      	str	r3, [r1, #4]
2000168e:	6853      	ldr	r3, [r2, #4]
20001690:	f501 3188 	add.w	r1, r1, #69632	; 0x11000
20001694:	f023 03ff 	bic.w	r3, r3, #255	; 0xff
20001698:	f043 03dd 	orr.w	r3, r3, #221	; 0xdd
2000169c:	6053      	str	r3, [r2, #4]
2000169e:	69ca      	ldr	r2, [r1, #28]
200016a0:	4b0b      	ldr	r3, [pc, #44]	; (200016d0 <i2c1r_init+0x58>)
200016a2:	f442 1200 	orr.w	r2, r2, #2097152	; 0x200000
200016a6:	61ca      	str	r2, [r1, #28]
200016a8:	881a      	ldrh	r2, [r3, #0]
200016aa:	f022 0201 	bic.w	r2, r2, #1
200016ae:	0412      	lsls	r2, r2, #16
200016b0:	0c12      	lsrs	r2, r2, #16
200016b2:	801a      	strh	r2, [r3, #0]
200016b4:	841d      	strh	r5, [r3, #32]
200016b6:	839c      	strh	r4, [r3, #28]
200016b8:	8098      	strh	r0, [r3, #4]
200016ba:	881a      	ldrh	r2, [r3, #0]
200016bc:	bc30      	pop	{r4, r5}
200016be:	f042 0201 	orr.w	r2, r2, #1
200016c2:	801a      	strh	r2, [r3, #0]
200016c4:	4770      	bx	lr
200016c6:	bf00      	nop
200016c8:	40010000 	.word	0x40010000
200016cc:	40010c00 	.word	0x40010c00
200016d0:	40005400 	.word	0x40005400

200016d4 <i2c1_write>:
200016d4:	b430      	push	{r4, r5}
200016d6:	2501      	movs	r5, #1
200016d8:	4b14      	ldr	r3, [pc, #80]	; (2000172c <i2c1_write+0x58>)
200016da:	4c15      	ldr	r4, [pc, #84]	; (20001730 <i2c1_write+0x5c>)
200016dc:	601d      	str	r5, [r3, #0]
200016de:	6823      	ldr	r3, [r4, #0]
200016e0:	2b00      	cmp	r3, #0
200016e2:	d0fc      	beq.n	200016de <i2c1_write+0xa>
200016e4:	4b13      	ldr	r3, [pc, #76]	; (20001734 <i2c1_write+0x60>)
200016e6:	b280      	uxth	r0, r0
200016e8:	4c13      	ldr	r4, [pc, #76]	; (20001738 <i2c1_write+0x64>)
200016ea:	8a9d      	ldrh	r5, [r3, #20]
200016ec:	8218      	strh	r0, [r3, #16]
200016ee:	6823      	ldr	r3, [r4, #0]
200016f0:	2b00      	cmp	r3, #0
200016f2:	d0fc      	beq.n	200016ee <i2c1_write+0x1a>
200016f4:	4c0f      	ldr	r4, [pc, #60]	; (20001734 <i2c1_write+0x60>)
200016f6:	8aa3      	ldrh	r3, [r4, #20]
200016f8:	8b23      	ldrh	r3, [r4, #24]
200016fa:	b14a      	cbz	r2, 20001710 <i2c1_write+0x3c>
200016fc:	480f      	ldr	r0, [pc, #60]	; (2000173c <i2c1_write+0x68>)
200016fe:	440a      	add	r2, r1
20001700:	6803      	ldr	r3, [r0, #0]
20001702:	2b00      	cmp	r3, #0
20001704:	d0fc      	beq.n	20001700 <i2c1_write+0x2c>
20001706:	f811 3b01 	ldrb.w	r3, [r1], #1
2000170a:	4291      	cmp	r1, r2
2000170c:	8223      	strh	r3, [r4, #16]
2000170e:	d1f7      	bne.n	20001700 <i2c1_write+0x2c>
20001710:	4a0a      	ldr	r2, [pc, #40]	; (2000173c <i2c1_write+0x68>)
20001712:	490b      	ldr	r1, [pc, #44]	; (20001740 <i2c1_write+0x6c>)
20001714:	6813      	ldr	r3, [r2, #0]
20001716:	2b00      	cmp	r3, #0
20001718:	d0fc      	beq.n	20001714 <i2c1_write+0x40>
2000171a:	680b      	ldr	r3, [r1, #0]
2000171c:	2b01      	cmp	r3, #1
2000171e:	d0f9      	beq.n	20001714 <i2c1_write+0x40>
20001720:	bc30      	pop	{r4, r5}
20001722:	2201      	movs	r2, #1
20001724:	4b07      	ldr	r3, [pc, #28]	; (20001744 <i2c1_write+0x70>)
20001726:	601a      	str	r2, [r3, #0]
20001728:	4770      	bx	lr
2000172a:	bf00      	nop
2000172c:	420a8020 	.word	0x420a8020
20001730:	420a8280 	.word	0x420a8280
20001734:	40005400 	.word	0x40005400
20001738:	420a8284 	.word	0x420a8284
2000173c:	420a829c 	.word	0x420a829c
20001740:	420a8288 	.word	0x420a8288
20001744:	420a8024 	.word	0x420a8024

20001748 <i2c1_read>:
20001748:	b470      	push	{r4, r5, r6}
2000174a:	4c25      	ldr	r4, [pc, #148]	; (200017e0 <i2c1_read+0x98>)
2000174c:	4626      	mov	r6, r4
2000174e:	8825      	ldrh	r5, [r4, #0]
20001750:	f445 7580 	orr.w	r5, r5, #256	; 0x100
20001754:	8025      	strh	r5, [r4, #0]
20001756:	8ab4      	ldrh	r4, [r6, #20]
20001758:	07e5      	lsls	r5, r4, #31
2000175a:	d5fc      	bpl.n	20001756 <i2c1_read+0xe>
2000175c:	b284      	uxth	r4, r0
2000175e:	4d20      	ldr	r5, [pc, #128]	; (200017e0 <i2c1_read+0x98>)
20001760:	8234      	strh	r4, [r6, #16]
20001762:	8aac      	ldrh	r4, [r5, #20]
20001764:	07a4      	lsls	r4, r4, #30
20001766:	d5fc      	bpl.n	20001762 <i2c1_read+0x1a>
20001768:	8b2c      	ldrh	r4, [r5, #24]
2000176a:	4d1d      	ldr	r5, [pc, #116]	; (200017e0 <i2c1_read+0x98>)
2000176c:	8aac      	ldrh	r4, [r5, #20]
2000176e:	0626      	lsls	r6, r4, #24
20001770:	d5fc      	bpl.n	2000176c <i2c1_read+0x24>
20001772:	b289      	uxth	r1, r1
20001774:	4c1a      	ldr	r4, [pc, #104]	; (200017e0 <i2c1_read+0x98>)
20001776:	8229      	strh	r1, [r5, #16]
20001778:	8aa1      	ldrh	r1, [r4, #20]
2000177a:	074d      	lsls	r5, r1, #29
2000177c:	d5fc      	bpl.n	20001778 <i2c1_read+0x30>
2000177e:	8821      	ldrh	r1, [r4, #0]
20001780:	4d17      	ldr	r5, [pc, #92]	; (200017e0 <i2c1_read+0x98>)
20001782:	f441 7180 	orr.w	r1, r1, #256	; 0x100
20001786:	8021      	strh	r1, [r4, #0]
20001788:	8aa9      	ldrh	r1, [r5, #20]
2000178a:	07cc      	lsls	r4, r1, #31
2000178c:	d5fc      	bpl.n	20001788 <i2c1_read+0x40>
2000178e:	f040 0001 	orr.w	r0, r0, #1
20001792:	4c13      	ldr	r4, [pc, #76]	; (200017e0 <i2c1_read+0x98>)
20001794:	8228      	strh	r0, [r5, #16]
20001796:	8aa1      	ldrh	r1, [r4, #20]
20001798:	0788      	lsls	r0, r1, #30
2000179a:	d5fc      	bpl.n	20001796 <i2c1_read+0x4e>
2000179c:	8b21      	ldrh	r1, [r4, #24]
2000179e:	8821      	ldrh	r1, [r4, #0]
200017a0:	f441 6180 	orr.w	r1, r1, #1024	; 0x400
200017a4:	8021      	strh	r1, [r4, #0]
200017a6:	b16b      	cbz	r3, 200017c4 <i2c1_read+0x7c>
200017a8:	480d      	ldr	r0, [pc, #52]	; (200017e0 <i2c1_read+0x98>)
200017aa:	3a01      	subs	r2, #1
200017ac:	2b01      	cmp	r3, #1
200017ae:	d010      	beq.n	200017d2 <i2c1_read+0x8a>
200017b0:	8a81      	ldrh	r1, [r0, #20]
200017b2:	0649      	lsls	r1, r1, #25
200017b4:	d5fc      	bpl.n	200017b0 <i2c1_read+0x68>
200017b6:	8a01      	ldrh	r1, [r0, #16]
200017b8:	3b01      	subs	r3, #1
200017ba:	f013 03ff 	ands.w	r3, r3, #255	; 0xff
200017be:	f802 1f01 	strb.w	r1, [r2, #1]!
200017c2:	d1f3      	bne.n	200017ac <i2c1_read+0x64>
200017c4:	bc70      	pop	{r4, r5, r6}
200017c6:	4a06      	ldr	r2, [pc, #24]	; (200017e0 <i2c1_read+0x98>)
200017c8:	8813      	ldrh	r3, [r2, #0]
200017ca:	f443 7300 	orr.w	r3, r3, #512	; 0x200
200017ce:	8013      	strh	r3, [r2, #0]
200017d0:	4770      	bx	lr
200017d2:	8801      	ldrh	r1, [r0, #0]
200017d4:	f421 6180 	bic.w	r1, r1, #1024	; 0x400
200017d8:	0409      	lsls	r1, r1, #16
200017da:	0c09      	lsrs	r1, r1, #16
200017dc:	8001      	strh	r1, [r0, #0]
200017de:	e7e7      	b.n	200017b0 <i2c1_read+0x68>
200017e0:	40005400 	.word	0x40005400

200017e4 <strlen>:
200017e4:	f020 0103 	bic.w	r1, r0, #3
200017e8:	f010 0003 	ands.w	r0, r0, #3
200017ec:	f1c0 0000 	rsb	r0, r0, #0
200017f0:	f851 3b04 	ldr.w	r3, [r1], #4
200017f4:	f100 0c04 	add.w	ip, r0, #4
200017f8:	ea4f 0ccc 	mov.w	ip, ip, lsl #3
200017fc:	f06f 0200 	mvn.w	r2, #0
20001800:	bf1c      	itt	ne
20001802:	fa22 f20c 	lsrne.w	r2, r2, ip
20001806:	4313      	orrne	r3, r2
20001808:	f04f 0c01 	mov.w	ip, #1
2000180c:	ea4c 2c0c 	orr.w	ip, ip, ip, lsl #8
20001810:	ea4c 4c0c 	orr.w	ip, ip, ip, lsl #16
20001814:	eba3 020c 	sub.w	r2, r3, ip
20001818:	ea22 0203 	bic.w	r2, r2, r3
2000181c:	ea12 12cc 	ands.w	r2, r2, ip, lsl #7
20001820:	bf04      	itt	eq
20001822:	f851 3b04 	ldreq.w	r3, [r1], #4
20001826:	3004      	addeq	r0, #4
20001828:	d0f4      	beq.n	20001814 <strlen+0x30>
2000182a:	f1c2 0100 	rsb	r1, r2, #0
2000182e:	ea02 0201 	and.w	r2, r2, r1
20001832:	fab2 f282 	clz	r2, r2
20001836:	f1c2 021f 	rsb	r2, r2, #31
2000183a:	eb00 00d2 	add.w	r0, r0, r2, lsr #3
2000183e:	4770      	bx	lr
20001840:	0164016d 	.word	0x0164016d
20001844:	001e0000 	.word	0x001e0000
	...
20001850:	190007d0 	.word	0x190007d0
20001854:	001e0000 	.word	0x001e0000
	...
20001860:	01500156 	.word	0x01500156
20001864:	00020000 	.word	0x00020000
	...
20001870:	01070072 	.word	0x01070072
20001874:	00020000 	.word	0x00020000
	...
20001880:	00671e00 	.word	0x00671e00
20001884:	6a6f5020 	.word	0x6a6f5020
20001888:	0064614c 	.word	0x0064614c
2000188c:	6a6f5020 	.word	0x6a6f5020
20001890:	007a6f52 	.word	0x007a6f52
20001894:	657a4320 	.word	0x657a4320
20001898:	006a616b 	.word	0x006a616b
2000189c:	70614e20 	.word	0x70614e20
200018a0:	00636569 	.word	0x00636569
200018a4:	6e6f4b20 	.word	0x6e6f4b20
200018a8:	0064614c 	.word	0x0064614c
200018ac:	6e6f4b20 	.word	0x6e6f4b20
200018b0:	007a6f52 	.word	0x007a6f52
200018b4:	64614c20 	.word	0x64614c20
200018b8:	00006a75 	.word	0x00006a75
200018bc:	4155200c 	.word	0x4155200c
200018c0:	20325452 	.word	0x20325452
200018c4:	00000000 	.word	0x00000000
200018c8:	0000002e 	.word	0x0000002e
200018cc:	00000056 	.word	0x00000056
200018d0:	0000416d 	.word	0x0000416d
200018d4:	0068416d 	.word	0x0068416d
200018d8:	00000057 	.word	0x00000057
200018dc:	0068576d 	.word	0x0068576d
200018e0:	006d686f 	.word	0x006d686f
200018e4:	0000200d 	.word	0x0000200d
200018e8:	004b5b1b 	.word	0x004b5b1b
200018ec:	20202030 	.word	0x20202030
200018f0:	20202020 	.word	0x20202020
200018f4:	20203120 	.word	0x20203120
200018f8:	20202020 	.word	0x20202020
200018fc:	32202020 	.word	0x32202020
20001900:	20202020 	.word	0x20202020
20001904:	20202020 	.word	0x20202020
20001908:	20203320 	.word	0x20203320
2000190c:	20202020 	.word	0x20202020
20001910:	34202020 	.word	0x34202020
20001914:	20202020 	.word	0x20202020
20001918:	20202020 	.word	0x20202020
2000191c:	00003520 	.word	0x00003520
20001920:	34333231 	.word	0x34333231
20001924:	38373635 	.word	0x38373635
20001928:	32312039 	.word	0x32312039
2000192c:	36353433 	.word	0x36353433
20001930:	20393837 	.word	0x20393837
20001934:	34333231 	.word	0x34333231
20001938:	38373635 	.word	0x38373635
2000193c:	32312039 	.word	0x32312039
20001940:	36353433 	.word	0x36353433
20001944:	20393837 	.word	0x20393837
20001948:	34333231 	.word	0x34333231
2000194c:	38373635 	.word	0x38373635
20001950:	32312039 	.word	0x32312039
20001954:	36353433 	.word	0x36353433
20001958:	30393837 	.word	0x30393837
2000195c:	00000000 	.word	0x00000000
20001960:	61646f50 	.word	0x61646f50
20001964:	7277206a 	.word	0x7277206a
20001968:	63736f74 	.word	0x63736f74
2000196c:	0000203d 	.word	0x0000203d
20001970:	574b5b1b 	.word	0x574b5b1b
20001974:	6f747261 	.word	0x6f747261
20001978:	69206373 	.word	0x69206373
2000197c:	6e5a656c 	.word	0x6e5a656c
20001980:	203d6b61 	.word	0x203d6b61
20001984:	00000000 	.word	0x00000000
20001988:	31315b1b 	.word	0x31315b1b
2000198c:	4836333b 	.word	0x4836333b
20001990:	00000000 	.word	0x00000000
20001994:	6f72655a 	.word	0x6f72655a
20001998:	696e6177 	.word	0x696e6177
2000199c:	2f742065 	.word	0x2f742065
200019a0:	00003d6e 	.word	0x00003d6e
200019a4:	646f5020 	.word	0x646f5020
200019a8:	77206a61 	.word	0x77206a61
200019ac:	736f7472 	.word	0x736f7472
200019b0:	00203d63 	.word	0x00203d63
200019b4:	694b5b1b 	.word	0x694b5b1b
200019b8:	6e5a656c 	.word	0x6e5a656c
200019bc:	572c6b61 	.word	0x572c6b61
200019c0:	6f747261 	.word	0x6f747261
200019c4:	003d6373 	.word	0x003d6373
200019c8:	64614c20 	.word	0x64614c20
200019cc:	64206a75 	.word	0x64206a75
200019d0:	3037206f 	.word	0x3037206f
200019d4:	20782025 	.word	0x20782025
200019d8:	68416d5b 	.word	0x68416d5b
200019dc:	00003d5d 	.word	0x00003d5d
200019e0:	00000020 	.word	0x00000020
200019e4:	204b5b1b 	.word	0x204b5b1b
200019e8:	6c7a6f52 	.word	0x6c7a6f52
200019ec:	6a756461 	.word	0x6a756461
200019f0:	2f745b20 	.word	0x2f745b20
200019f4:	003d5d6e 	.word	0x003d5d6e
200019f8:	4c4b5b1b 	.word	0x4c4b5b1b
200019fc:	6a756461 	.word	0x6a756461
20001a00:	206f6420 	.word	0x206f6420
20001a04:	68416d5b 	.word	0x68416d5b
20001a08:	00003d5d 	.word	0x00003d5d
20001a0c:	4155200c 	.word	0x4155200c
20001a10:	20315452 	.word	0x20315452
20001a14:	00000000 	.word	0x00000000
20001a18:	732f6220 	.word	0x732f6220
20001a1c:	000a0d20 	.word	0x000a0d20
20001a20:	00005b1b 	.word	0x00005b1b
