ARM GAS  /tmp/ccGr0C5G.s 			page 1


   1              		.cpu cortex-m3
   2              		.eabi_attribute 20, 1	@ Tag_ABI_FP_denormal
   3              		.eabi_attribute 21, 1	@ Tag_ABI_FP_exceptions
   4              		.eabi_attribute 23, 3	@ Tag_ABI_FP_number_model
   5              		.eabi_attribute 24, 1	@ Tag_ABI_align8_needed
   6              		.eabi_attribute 25, 1	@ Tag_ABI_align8_preserved
   7              		.eabi_attribute 26, 1	@ Tag_ABI_enum_size
   8              		.eabi_attribute 30, 2	@ Tag_ABI_optimization_goals
   9              		.eabi_attribute 34, 1	@ Tag_CPU_unaligned_access
  10              		.eabi_attribute 18, 4	@ Tag_ABI_PCS_wchar_t
  11              		.file	"sp_term.c"
  12              	@ GNU C99 (15:7-2018-q2-6) version 7.3.1 20180622 (release) [ARM/embedded-7-branch revision 261907]
  13              	@	compiled by GNU C version 8.2.0, GMP version 6.1.2, MPFR version 4.0.2, MPC version 1.1.0, isl ve
  14              	@ GGC heuristics: --param ggc-min-expand=100 --param ggc-min-heapsize=131072
  15              	@ options passed:  -I . -imultilib thumb/v7-m -MD out/sp_term.d
  16              	@ -MF out/sp_term.d -MP -MQ out/sp_term.o -D__USES_INITFINI__ -D RAMCODE
  17              	@ -D STM32F10X_HD inc/tool/sp_term.c -mcpu=cortex-m3 -mthumb
  18              	@ -auxbase-strip out/sp_term.o -O2 -Wall -Wstrict-prototypes -Wextra
  19              	@ -Wno-uninitialized -Wno-unused-but-set-variable -Wno-unused-parameter
  20              	@ -Wno-unused-variable -std=gnu99 -ffunction-sections -fdata-sections
  21              	@ -fverbose-asm
  22              	@ options enabled:  -faggressive-loop-optimizations -falign-jumps
  23              	@ -falign-labels -falign-loops -fauto-inc-dec -fbranch-count-reg
  24              	@ -fcaller-saves -fchkp-check-incomplete-type -fchkp-check-read
  25              	@ -fchkp-check-write -fchkp-instrument-calls -fchkp-narrow-bounds
  26              	@ -fchkp-optimize -fchkp-store-bounds -fchkp-use-static-bounds
  27              	@ -fchkp-use-static-const-bounds -fchkp-use-wrappers -fcode-hoisting
  28              	@ -fcombine-stack-adjustments -fcommon -fcompare-elim -fcprop-registers
  29              	@ -fcrossjumping -fcse-follow-jumps -fdata-sections -fdefer-pop
  30              	@ -fdelete-null-pointer-checks -fdevirtualize -fdevirtualize-speculatively
  31              	@ -fdwarf2-cfi-asm -fearly-inlining -feliminate-unused-debug-types
  32              	@ -fexpensive-optimizations -fforward-propagate -ffp-int-builtin-inexact
  33              	@ -ffunction-cse -ffunction-sections -fgcse -fgcse-lm -fgnu-runtime
  34              	@ -fgnu-unique -fguess-branch-probability -fhoist-adjacent-loads -fident
  35              	@ -fif-conversion -fif-conversion2 -findirect-inlining -finline
  36              	@ -finline-atomics -finline-functions-called-once -finline-small-functions
  37              	@ -fipa-bit-cp -fipa-cp -fipa-icf -fipa-icf-functions -fipa-icf-variables
  38              	@ -fipa-profile -fipa-pure-const -fipa-ra -fipa-reference -fipa-sra
  39              	@ -fipa-vrp -fira-hoist-pressure -fira-share-save-slots
  40              	@ -fira-share-spill-slots -fisolate-erroneous-paths-dereference -fivopts
  41              	@ -fkeep-static-consts -fleading-underscore -flifetime-dse -flra-remat
  42              	@ -flto-odr-type-merging -fmath-errno -fmerge-constants
  43              	@ -fmerge-debug-strings -fmove-loop-invariants -fomit-frame-pointer
  44              	@ -foptimize-sibling-calls -foptimize-strlen -fpartial-inlining -fpeephole
  45              	@ -fpeephole2 -fplt -fprefetch-loop-arrays -freg-struct-return
  46              	@ -freorder-blocks -freorder-functions -frerun-cse-after-loop
  47              	@ -fsched-critical-path-heuristic -fsched-dep-count-heuristic
  48              	@ -fsched-group-heuristic -fsched-interblock -fsched-last-insn-heuristic
  49              	@ -fsched-pressure -fsched-rank-heuristic -fsched-spec
  50              	@ -fsched-spec-insn-heuristic -fsched-stalled-insns-dep -fschedule-insns
  51              	@ -fschedule-insns2 -fsection-anchors -fsemantic-interposition
  52              	@ -fshow-column -fshrink-wrap -fshrink-wrap-separate -fsigned-zeros
  53              	@ -fsplit-ivs-in-unroller -fsplit-wide-types -fssa-backprop -fssa-phiopt
  54              	@ -fstdarg-opt -fstore-merging -fstrict-aliasing -fstrict-overflow
  55              	@ -fstrict-volatile-bitfields -fsync-libcalls -fthread-jumps
  56              	@ -ftoplevel-reorder -ftrapping-math -ftree-bit-ccp -ftree-builtin-call-dce
  57              	@ -ftree-ccp -ftree-ch -ftree-coalesce-vars -ftree-copy-prop -ftree-cselim
ARM GAS  /tmp/ccGr0C5G.s 			page 2


  58              	@ -ftree-dce -ftree-dominator-opts -ftree-dse -ftree-forwprop -ftree-fre
  59              	@ -ftree-loop-if-convert -ftree-loop-im -ftree-loop-ivcanon
  60              	@ -ftree-loop-optimize -ftree-parallelize-loops= -ftree-phiprop -ftree-pre
  61              	@ -ftree-pta -ftree-reassoc -ftree-scev-cprop -ftree-sink -ftree-slsr
  62              	@ -ftree-sra -ftree-switch-conversion -ftree-tail-merge -ftree-ter
  63              	@ -ftree-vrp -funit-at-a-time -fverbose-asm -fzero-initialized-in-bss
  64              	@ -masm-syntax-unified -mfix-cortex-m3-ldrd -mlittle-endian
  65              	@ -mpic-data-is-text-relative -msched-prolog -mthumb -munaligned-access
  66              	@ -mvectorize-with-neon-quad
  67              	
  68              		.text
  69              		.section	.text.tr_cursor_hide,"ax",%progbits
  70              		.align	1
  71              		.p2align 2,,3
  72              		.global	tr_cursor_hide
  73              		.syntax unified
  74              		.thumb
  75              		.thumb_func
  76              		.fpu softvfp
  77              		.type	tr_cursor_hide, %function
  78              	tr_cursor_hide:
  79              		@ args = 0, pretend = 0, frame = 0
  80              		@ frame_needed = 0, uses_anonymous_args = 0
  81              		@ link register save eliminated.
  82              	@ inc/tool/sp_term.c:23: 		if(hide) UaPutK( UCUR_HIDE );
  83 0000 10B9     		cbnz	r0, .L4	@ hide,
  84              	@ inc/tool/sp_term.c:24: 		else UaPutK( UCUR_SHOW );
  85 0002 0348     		ldr	r0, .L5	@,
  86 0004 FFF7FEBF 		b	UaPutK	@
  87              	.L4:
  88              	@ inc/tool/sp_term.c:23: 		if(hide) UaPutK( UCUR_HIDE );
  89 0008 0248     		ldr	r0, .L5+4	@,
  90 000a FFF7FEBF 		b	UaPutK	@
  91              	.L6:
  92 000e 00BF     		.align	2
  93              	.L5:
  94 0010 00000000 		.word	.LANCHOR1
  95 0014 00000000 		.word	.LANCHOR0
  96              		.size	tr_cursor_hide, .-tr_cursor_hide
  97              		.section	.text.tr_cls,"ax",%progbits
  98              		.align	1
  99              		.p2align 2,,3
 100              		.global	tr_cls
 101              		.syntax unified
 102              		.thumb
 103              		.thumb_func
 104              		.fpu softvfp
 105              		.type	tr_cls, %function
 106              	tr_cls:
 107              		@ args = 0, pretend = 0, frame = 0
 108              		@ frame_needed = 0, uses_anonymous_args = 0
 109 0000 08B5     		push	{r3, lr}	@
 110              	@ inc/tool/sp_term.c:31: 		UaPutK( UCLS );
 111 0002 0448     		ldr	r0, .L9	@,
 112 0004 FFF7FEFF 		bl	UaPutK	@
 113              	@ inc/tool/sp_term.c:34: 	}
 114 0008 BDE80840 		pop	{r3, lr}	@
ARM GAS  /tmp/ccGr0C5G.s 			page 3


 115              	@ inc/tool/sp_term.c:32: 		UaPutK( UHOME );
 116 000c 0248     		ldr	r0, .L9+4	@,
 117 000e FFF7FEBF 		b	UaPutK	@
 118              	.L10:
 119 0012 00BF     		.align	2
 120              	.L9:
 121 0014 00000000 		.word	.LANCHOR2
 122 0018 00000000 		.word	.LANCHOR3
 123              		.size	tr_cls, .-tr_cls
 124              		.section	.text.fill_line,"ax",%progbits
 125              		.align	1
 126              		.p2align 2,,3
 127              		.global	fill_line
 128              		.syntax unified
 129              		.thumb
 130              		.thumb_func
 131              		.fpu softvfp
 132              		.type	fill_line, %function
 133              	fill_line:
 134              		@ args = 0, pretend = 0, frame = 0
 135              		@ frame_needed = 0, uses_anonymous_args = 0
 136              	@ inc/tool/sp_term.c:37: 		for(uint8_t i=0; i<cnt; i++) UaPutC( ascii );
 137 0000 59B1     		cbz	r1, .L19	@ cnt,
 138              	@ inc/tool/sp_term.c:36: void fill_line( char ascii, uint8_t cnt ) {
 139 0002 70B5     		push	{r4, r5, r6, lr}	@
 140 0004 0D46     		mov	r5, r1	@ cnt, cnt
 141 0006 0646     		mov	r6, r0	@ ascii, ascii
 142              	@ inc/tool/sp_term.c:37: 		for(uint8_t i=0; i<cnt; i++) UaPutC( ascii );
 143 0008 0024     		movs	r4, #0	@ i,
 144              	.L13:
 145              	@ inc/tool/sp_term.c:37: 		for(uint8_t i=0; i<cnt; i++) UaPutC( ascii );
 146 000a 0134     		adds	r4, r4, #1	@ tmp113, i,
 147 000c 3046     		mov	r0, r6	@, ascii
 148 000e E4B2     		uxtb	r4, r4	@ i, tmp113
 149 0010 FFF7FEFF 		bl	UaPutC	@
 150 0014 A542     		cmp	r5, r4	@ cnt, i
 151 0016 F8D1     		bne	.L13	@,
 152              	@ inc/tool/sp_term.c:38: 	}
 153 0018 70BD     		pop	{r4, r5, r6, pc}	@
 154              	.L19:
 155 001a 7047     		bx	lr	@
 156              		.size	fill_line, .-fill_line
 157              		.section	.text.tr_attr,"ax",%progbits
 158              		.align	1
 159              		.p2align 2,,3
 160              		.global	tr_attr
 161              		.syntax unified
 162              		.thumb
 163              		.thumb_func
 164              		.fpu softvfp
 165              		.type	tr_attr, %function
 166              	tr_attr:
 167              		@ args = 0, pretend = 0, frame = 0
 168              		@ frame_needed = 0, uses_anonymous_args = 0
 169 0000 70B5     		push	{r4, r5, r6, lr}	@
 170              	@ inc/tool/sp_term.c:40: void tr_attr( uint8_t atr, uint8_t fg, uint8_t bg ) {
 171 0002 0646     		mov	r6, r0	@ atr, atr
ARM GAS  /tmp/ccGr0C5G.s 			page 4


 172 0004 0D46     		mov	r5, r1	@ fg, fg
 173 0006 1446     		mov	r4, r2	@ bg, bg
 174              	@ inc/tool/sp_term.c:41: 		UaPutC( 0x1b );		// <ESC>[0;32;44m
 175 0008 1B20     		movs	r0, #27	@,
 176 000a FFF7FEFF 		bl	UaPutC	@
 177              	@ inc/tool/sp_term.c:42: 		UaPutC( '[' );
 178 000e 5B20     		movs	r0, #91	@,
 179 0010 FFF7FEFF 		bl	UaPutC	@
 180              	@ inc/tool/sp_term.c:43: 		UaPutC( atr+'0' );
 181 0014 06F13000 		add	r0, r6, #48	@ tmp116, atr,
 182 0018 C0B2     		uxtb	r0, r0	@, tmp116
 183 001a FFF7FEFF 		bl	UaPutC	@
 184              	@ inc/tool/sp_term.c:44: 		UaPutC( ';' );
 185 001e 3B20     		movs	r0, #59	@,
 186 0020 FFF7FEFF 		bl	UaPutC	@
 187              	@ inc/tool/sp_term.c:45: 		UaPutC( '3' );
 188 0024 3320     		movs	r0, #51	@,
 189 0026 FFF7FEFF 		bl	UaPutC	@
 190              	@ inc/tool/sp_term.c:46: 		UaPutC( fg+'0' );
 191 002a 05F13000 		add	r0, r5, #48	@ tmp118, fg,
 192 002e C0B2     		uxtb	r0, r0	@, tmp118
 193 0030 FFF7FEFF 		bl	UaPutC	@
 194              	@ inc/tool/sp_term.c:47: 		UaPutC( ';' );
 195 0034 3B20     		movs	r0, #59	@,
 196 0036 FFF7FEFF 		bl	UaPutC	@
 197              	@ inc/tool/sp_term.c:48: 		UaPutC( '4' );
 198 003a 3420     		movs	r0, #52	@,
 199 003c FFF7FEFF 		bl	UaPutC	@
 200              	@ inc/tool/sp_term.c:49: 		UaPutC( bg+'0' );
 201 0040 04F13000 		add	r0, r4, #48	@ tmp120, bg,
 202 0044 C0B2     		uxtb	r0, r0	@, tmp120
 203 0046 FFF7FEFF 		bl	UaPutC	@
 204              	@ inc/tool/sp_term.c:51: 	}
 205 004a BDE87040 		pop	{r4, r5, r6, lr}	@
 206              	@ inc/tool/sp_term.c:50: 		UaPutC( 'm' );
 207 004e 6D20     		movs	r0, #109	@,
 208 0050 FFF7FEBF 		b	UaPutC	@
 209              		.size	tr_attr, .-tr_attr
 210              		.section	.text.tr_pen_color,"ax",%progbits
 211              		.align	1
 212              		.p2align 2,,3
 213              		.global	tr_pen_color
 214              		.syntax unified
 215              		.thumb
 216              		.thumb_func
 217              		.fpu softvfp
 218              		.type	tr_pen_color, %function
 219              	tr_pen_color:
 220              		@ args = 0, pretend = 0, frame = 0
 221              		@ frame_needed = 0, uses_anonymous_args = 0
 222 0000 10B5     		push	{r4, lr}	@
 223              	@ inc/tool/sp_term.c:53: void tr_pen_color( uint8_t cl ) {
 224 0002 0446     		mov	r4, r0	@ cl, cl
 225              	@ inc/tool/sp_term.c:54: 		UaPutC( 0x1b );		// <ESC>[34m
 226 0004 1B20     		movs	r0, #27	@,
 227 0006 FFF7FEFF 		bl	UaPutC	@
 228              	@ inc/tool/sp_term.c:55: 		UaPutC( '[' );
ARM GAS  /tmp/ccGr0C5G.s 			page 5


 229 000a 5B20     		movs	r0, #91	@,
 230 000c FFF7FEFF 		bl	UaPutC	@
 231              	@ inc/tool/sp_term.c:56: 		UaPutC( '3' );
 232 0010 3320     		movs	r0, #51	@,
 233 0012 FFF7FEFF 		bl	UaPutC	@
 234              	@ inc/tool/sp_term.c:57: 		UaPutC( cl+'0' );
 235 0016 04F13000 		add	r0, r4, #48	@ tmp112, cl,
 236 001a C0B2     		uxtb	r0, r0	@, tmp112
 237 001c FFF7FEFF 		bl	UaPutC	@
 238              	@ inc/tool/sp_term.c:59: 	}
 239 0020 BDE81040 		pop	{r4, lr}	@
 240              	@ inc/tool/sp_term.c:58: 		UaPutC( 'm' );
 241 0024 6D20     		movs	r0, #109	@,
 242 0026 FFF7FEBF 		b	UaPutC	@
 243              		.size	tr_pen_color, .-tr_pen_color
 244 002a 00BF     		.section	.text.tr_brush_color,"ax",%progbits
 245              		.align	1
 246              		.p2align 2,,3
 247              		.global	tr_brush_color
 248              		.syntax unified
 249              		.thumb
 250              		.thumb_func
 251              		.fpu softvfp
 252              		.type	tr_brush_color, %function
 253              	tr_brush_color:
 254              		@ args = 0, pretend = 0, frame = 0
 255              		@ frame_needed = 0, uses_anonymous_args = 0
 256 0000 10B5     		push	{r4, lr}	@
 257              	@ inc/tool/sp_term.c:61: void tr_brush_color( uint8_t cl ) {
 258 0002 0446     		mov	r4, r0	@ cl, cl
 259              	@ inc/tool/sp_term.c:62: 		UaPutC( 0x1b );		// <ESC>[44m
 260 0004 1B20     		movs	r0, #27	@,
 261 0006 FFF7FEFF 		bl	UaPutC	@
 262              	@ inc/tool/sp_term.c:63: 		UaPutC( '[' );
 263 000a 5B20     		movs	r0, #91	@,
 264 000c FFF7FEFF 		bl	UaPutC	@
 265              	@ inc/tool/sp_term.c:64: 		UaPutC( '4' );
 266 0010 3420     		movs	r0, #52	@,
 267 0012 FFF7FEFF 		bl	UaPutC	@
 268              	@ inc/tool/sp_term.c:65: 		UaPutC( cl+'0' );
 269 0016 04F13000 		add	r0, r4, #48	@ tmp112, cl,
 270 001a C0B2     		uxtb	r0, r0	@, tmp112
 271 001c FFF7FEFF 		bl	UaPutC	@
 272              	@ inc/tool/sp_term.c:67: 	}
 273 0020 BDE81040 		pop	{r4, lr}	@
 274              	@ inc/tool/sp_term.c:66: 		UaPutC( 'm' );
 275 0024 6D20     		movs	r0, #109	@,
 276 0026 FFF7FEBF 		b	UaPutC	@
 277              		.size	tr_brush_color, .-tr_brush_color
 278 002a 00BF     		.section	.text.tr_locate,"ax",%progbits
 279              		.align	1
 280              		.p2align 2,,3
 281              		.global	tr_locate
 282              		.syntax unified
 283              		.thumb
 284              		.thumb_func
 285              		.fpu softvfp
ARM GAS  /tmp/ccGr0C5G.s 			page 6


 286              		.type	tr_locate, %function
 287              	tr_locate:
 288              		@ args = 0, pretend = 0, frame = 0
 289              		@ frame_needed = 0, uses_anonymous_args = 0
 290 0000 38B5     		push	{r3, r4, r5, lr}	@
 291              	@ inc/tool/sp_term.c:69: void tr_locate( uint8_t x, uint8_t y ) {
 292 0002 0D46     		mov	r5, r1	@ y, y
 293 0004 0446     		mov	r4, r0	@ x, x
 294              	@ inc/tool/sp_term.c:71: 		UaPutC( 0x1b );	// <ESC>[y;xH <ESC>[{ROW};{COLUMN}f
 295 0006 1B20     		movs	r0, #27	@,
 296 0008 FFF7FEFF 		bl	UaPutC	@
 297              	@ inc/tool/sp_term.c:72: 		UaPutC('[');
 298 000c 5B20     		movs	r0, #91	@,
 299 000e FFF7FEFF 		bl	UaPutC	@
 300              	@ inc/tool/sp_term.c:73: 		UaPutC(y+48);
 301 0012 05F13000 		add	r0, r5, #48	@ tmp114, y,
 302 0016 C0B2     		uxtb	r0, r0	@, tmp114
 303 0018 FFF7FEFF 		bl	UaPutC	@
 304              	@ inc/tool/sp_term.c:74: 		UaPutC(';');
 305 001c 3B20     		movs	r0, #59	@,
 306 001e FFF7FEFF 		bl	UaPutC	@
 307              	@ inc/tool/sp_term.c:75: 		UaPutC(x+48);
 308 0022 04F13000 		add	r0, r4, #48	@ tmp116, x,
 309 0026 C0B2     		uxtb	r0, r0	@, tmp116
 310 0028 FFF7FEFF 		bl	UaPutC	@
 311              	@ inc/tool/sp_term.c:78: 	}
 312 002c BDE83840 		pop	{r3, r4, r5, lr}	@
 313              	@ inc/tool/sp_term.c:77: 		UaPutC('f'  );
 314 0030 6620     		movs	r0, #102	@,
 315 0032 FFF7FEBF 		b	UaPutC	@
 316              		.size	tr_locate, .-tr_locate
 317 0036 00BF     		.section	.text.tr_loc,"ax",%progbits
 318              		.align	1
 319              		.p2align 2,,3
 320              		.global	tr_loc
 321              		.syntax unified
 322              		.thumb
 323              		.thumb_func
 324              		.fpu softvfp
 325              		.type	tr_loc, %function
 326              	tr_loc:
 327              		@ args = 0, pretend = 0, frame = 0
 328              		@ frame_needed = 0, uses_anonymous_args = 0
 329              		@ link register save eliminated.
 330 0000 FFF7FEBF 		b	tr_locate	@
 331              		.size	tr_loc, .-tr_loc
 332              		.section	.text.tr_erasescr,"ax",%progbits
 333              		.align	1
 334              		.p2align 2,,3
 335              		.global	tr_erasescr
 336              		.syntax unified
 337              		.thumb
 338              		.thumb_func
 339              		.fpu softvfp
 340              		.type	tr_erasescr, %function
 341              	tr_erasescr:
 342              		@ args = 0, pretend = 0, frame = 0
ARM GAS  /tmp/ccGr0C5G.s 			page 7


 343              		@ frame_needed = 0, uses_anonymous_args = 0
 344              	@ inc/tool/sp_term.c:91: void tr_erasescr( void ) {
 345 0000 08B5     		push	{r3, lr}	@
 346              	@ inc/tool/sp_term.c:92: 		UaPutC( 0x1b );		// <ESC>[2J
 347 0002 1B20     		movs	r0, #27	@,
 348 0004 FFF7FEFF 		bl	UaPutC	@
 349              	@ inc/tool/sp_term.c:93: 		UaPutC( '[' );
 350 0008 5B20     		movs	r0, #91	@,
 351 000a FFF7FEFF 		bl	UaPutC	@
 352              	@ inc/tool/sp_term.c:94: 		UaPutC( '1' );
 353 000e 3120     		movs	r0, #49	@,
 354 0010 FFF7FEFF 		bl	UaPutC	@
 355              	@ inc/tool/sp_term.c:96: 	}
 356 0014 BDE80840 		pop	{r3, lr}	@
 357              	@ inc/tool/sp_term.c:95: 		UaPutC( 'J' );
 358 0018 4A20     		movs	r0, #74	@,
 359 001a FFF7FEBF 		b	UaPutC	@
 360              		.size	tr_erasescr, .-tr_erasescr
 361 001e 00BF     		.section	.text.tr_cur_back,"ax",%progbits
 362              		.align	1
 363              		.p2align 2,,3
 364              		.global	tr_cur_back
 365              		.syntax unified
 366              		.thumb
 367              		.thumb_func
 368              		.fpu softvfp
 369              		.type	tr_cur_back, %function
 370              	tr_cur_back:
 371              		@ args = 0, pretend = 0, frame = 0
 372              		@ frame_needed = 0, uses_anonymous_args = 0
 373 0000 10B5     		push	{r4, lr}	@
 374              	@ inc/tool/sp_term.c:98: void tr_cur_back( uint8_t c ) {
 375 0002 0446     		mov	r4, r0	@ c, c
 376              	@ inc/tool/sp_term.c:99: 		UaPutC( 0x1b );	// <ESC>[{ROW};{COLUMN}f
 377 0004 1B20     		movs	r0, #27	@,
 378 0006 FFF7FEFF 		bl	UaPutC	@
 379              	@ inc/tool/sp_term.c:100: 		UaPutC('['  );
 380 000a 5B20     		movs	r0, #91	@,
 381 000c FFF7FEFF 		bl	UaPutC	@
 382              	@ inc/tool/sp_term.c:101: 		UaPutC(c+'0');
 383 0010 04F13000 		add	r0, r4, #48	@ tmp112, c,
 384 0014 C0B2     		uxtb	r0, r0	@, tmp112
 385 0016 FFF7FEFF 		bl	UaPutC	@
 386              	@ inc/tool/sp_term.c:103: 	}
 387 001a BDE81040 		pop	{r4, lr}	@
 388              	@ inc/tool/sp_term.c:102: 		UaPutC('D'  );
 389 001e 4420     		movs	r0, #68	@,
 390 0020 FFF7FEBF 		b	UaPutC	@
 391              		.size	tr_cur_back, .-tr_cur_back
 392              		.section	.text.tr_cur_forward,"ax",%progbits
 393              		.align	1
 394              		.p2align 2,,3
 395              		.global	tr_cur_forward
 396              		.syntax unified
 397              		.thumb
 398              		.thumb_func
 399              		.fpu softvfp
ARM GAS  /tmp/ccGr0C5G.s 			page 8


 400              		.type	tr_cur_forward, %function
 401              	tr_cur_forward:
 402              		@ args = 0, pretend = 0, frame = 0
 403              		@ frame_needed = 0, uses_anonymous_args = 0
 404 0000 10B5     		push	{r4, lr}	@
 405              	@ inc/tool/sp_term.c:105: void tr_cur_forward( uint8_t c ) {
 406 0002 0446     		mov	r4, r0	@ c, c
 407              	@ inc/tool/sp_term.c:106: 		UaPutC( 0x1b );	// <ESC>[{ROW};{COLUMN}f
 408 0004 1B20     		movs	r0, #27	@,
 409 0006 FFF7FEFF 		bl	UaPutC	@
 410              	@ inc/tool/sp_term.c:107: 		UaPutC('['  );
 411 000a 5B20     		movs	r0, #91	@,
 412 000c FFF7FEFF 		bl	UaPutC	@
 413              	@ inc/tool/sp_term.c:108: 		UaPutC(c+'0');
 414 0010 04F13000 		add	r0, r4, #48	@ tmp112, c,
 415 0014 C0B2     		uxtb	r0, r0	@, tmp112
 416 0016 FFF7FEFF 		bl	UaPutC	@
 417              	@ inc/tool/sp_term.c:110: 	}
 418 001a BDE81040 		pop	{r4, lr}	@
 419              	@ inc/tool/sp_term.c:109: 		UaPutC('C'  );
 420 001e 4320     		movs	r0, #67	@,
 421 0020 FFF7FEBF 		b	UaPutC	@
 422              		.size	tr_cur_forward, .-tr_cur_forward
 423              		.global	U_ATTR_OFF
 424              		.global	UCUR_SHOW
 425              		.global	UCUR_HIDE
 426              		.global	UHOME
 427              		.global	UCLS
 428              		.comm	PutChar,4,4
 429              		.comm	ptm,36,4
 430              		.section	.rodata.UCLS,"a",%progbits
 431              		.align	2
 432              		.set	.LANCHOR2,. + 0
 433              		.type	UCLS, %object
 434              		.size	UCLS, 5
 435              	UCLS:
 436 0000 1B5B324A 		.ascii	"\033[2J\000"
 436      00
 437              		.section	.rodata.UCUR_HIDE,"a",%progbits
 438              		.align	2
 439              		.set	.LANCHOR0,. + 0
 440              		.type	UCUR_HIDE, %object
 441              		.size	UCUR_HIDE, 7
 442              	UCUR_HIDE:
 443 0000 1B5B3F32 		.ascii	"\033[?25l\000"
 443      356C00
 444              		.section	.rodata.UCUR_SHOW,"a",%progbits
 445              		.align	2
 446              		.set	.LANCHOR1,. + 0
 447              		.type	UCUR_SHOW, %object
 448              		.size	UCUR_SHOW, 7
 449              	UCUR_SHOW:
 450 0000 1B5B3F32 		.ascii	"\033[?25h\000"
 450      356800
 451              		.section	.rodata.UHOME,"a",%progbits
 452              		.align	2
 453              		.set	.LANCHOR3,. + 0
ARM GAS  /tmp/ccGr0C5G.s 			page 9


 454              		.type	UHOME, %object
 455              		.size	UHOME, 5
 456              	UHOME:
 457 0000 1B5B3B48 		.ascii	"\033[;H\000"
 457      00
 458              		.section	.rodata.U_ATTR_OFF,"a",%progbits
 459              		.align	2
 460              		.type	U_ATTR_OFF, %object
 461              		.size	U_ATTR_OFF, 4
 462              	U_ATTR_OFF:
 463 0000 1B5B6D00 		.ascii	"\033[m\000"
 464              		.ident	"GCC: (15:7-2018-q2-6) 7.3.1 20180622 (release) [ARM/embedded-7-branch revision 261907]"
ARM GAS  /tmp/ccGr0C5G.s 			page 10

